
target/riscv32imac-unknown-none-elf/release/ring-buffer-smoketest:     file format elf32-littleriscv


Disassembly of section .text:

00010094 <core::panicking::panic_bounds_check>:
   10094:	1141                	addi	sp,sp,-16
   10096:	c606                	sw	ra,12(sp)
   10098:	c422                	sw	s0,8(sp)
   1009a:	0800                	addi	s0,sp,16
   1009c:	00000097          	auipc	ra,0x0
   100a0:	008080e7          	jalr	8(ra) # 100a4 <core::panicking::panic_fmt>

000100a4 <core::panicking::panic_fmt>:
   100a4:	a001                	j	100a4 <core::panicking::panic_fmt>

000100a6 <core::panicking::panic_const::panic_const_rem_by_zero>:
   100a6:	1141                	addi	sp,sp,-16
   100a8:	c606                	sw	ra,12(sp)
   100aa:	c422                	sw	s0,8(sp)
   100ac:	0800                	addi	s0,sp,16
   100ae:	00000097          	auipc	ra,0x0
   100b2:	ff6080e7          	jalr	-10(ra) # 100a4 <core::panicking::panic_fmt>

000100b6 <<ring_buffer_smoketest::collections::ring_buffer::RingBuffer<T> as ring_buffer_smoketest::collections::queue::Queue<T>>::has_elements>:
   100b6:	450c                	lw	a1,8(a0)
   100b8:	4548                	lw	a0,12(a0)
   100ba:	8d2d                	xor	a0,a0,a1
   100bc:	00a03533          	snez	a0,a0
   100c0:	8082                	ret

000100c2 <<ring_buffer_smoketest::collections::ring_buffer::RingBuffer<T> as ring_buffer_smoketest::collections::queue::Queue<T>>::remove_first_matching>:
   100c2:	410c                	lw	a1,0(a0)
   100c4:	00452803          	lw	a6,4(a0)
   100c8:	4510                	lw	a2,8(a0)
   100ca:	4554                	lw	a3,12(a0)
   100cc:	478d                	li	a5,3
   100ce:	02d60163          	beq	a2,a3,100f0 <<ring_buffer_smoketest::collections::ring_buffer::RingBuffer<T> as ring_buffer_smoketest::collections::queue::Queue<T>>::remove_first_matching+0x2e>
   100d2:	00261713          	slli	a4,a2,0x2
   100d6:	972e                	add	a4,a4,a1
   100d8:	4318                	lw	a4,0(a4)
   100da:	02f70563          	beq	a4,a5,10104 <<ring_buffer_smoketest::collections::ring_buffer::RingBuffer<T> as ring_buffer_smoketest::collections::queue::Queue<T>>::remove_first_matching+0x42>
   100de:	0605                	addi	a2,a2,1
   100e0:	01064733          	xor	a4,a2,a6
   100e4:	00173713          	seqz	a4,a4
   100e8:	177d                	addi	a4,a4,-1
   100ea:	8e79                	and	a2,a2,a4
   100ec:	fed613e3          	bne	a2,a3,100d2 <<ring_buffer_smoketest::collections::ring_buffer::RingBuffer<T> as ring_buffer_smoketest::collections::queue::Queue<T>>::remove_first_matching+0x10>
   100f0:	4501                	li	a0,0
   100f2:	8082                	ret
   100f4:	00279713          	slli	a4,a5,0x2
   100f8:	972e                	add	a4,a4,a1
   100fa:	4318                	lw	a4,0(a4)
   100fc:	060a                	slli	a2,a2,0x2
   100fe:	962e                	add	a2,a2,a1
   10100:	c218                	sw	a4,0(a2)
   10102:	863e                	mv	a2,a5
   10104:	00160713          	addi	a4,a2,1
   10108:	030777b3          	remu	a5,a4,a6
   1010c:	fed794e3          	bne	a5,a3,100f4 <<ring_buffer_smoketest::collections::ring_buffer::RingBuffer<T> as ring_buffer_smoketest::collections::queue::Queue<T>>::remove_first_matching+0x32>
   10110:	c550                	sw	a2,12(a0)
   10112:	4505                	li	a0,1
   10114:	8082                	ret

00010116 <<ring_buffer_smoketest::collections::ring_buffer::RingBuffer<T> as ring_buffer_smoketest::collections::queue::Queue<T>>::len>:
   10116:	450c                	lw	a1,8(a0)
   10118:	4550                	lw	a2,12(a0)
   1011a:	00c5f563          	bgeu	a1,a2,10124 <<ring_buffer_smoketest::collections::ring_buffer::RingBuffer<T> as ring_buffer_smoketest::collections::queue::Queue<T>>::len+0xe>
   1011e:	40b60533          	sub	a0,a2,a1
   10122:	8082                	ret
   10124:	00b67663          	bgeu	a2,a1,10130 <<ring_buffer_smoketest::collections::ring_buffer::RingBuffer<T> as ring_buffer_smoketest::collections::queue::Queue<T>>::len+0x1a>
   10128:	4148                	lw	a0,4(a0)
   1012a:	8d0d                	sub	a0,a0,a1
   1012c:	9532                	add	a0,a0,a2
   1012e:	8082                	ret
   10130:	4501                	li	a0,0
   10132:	8082                	ret

00010134 <<ring_buffer_smoketest::collections::ring_buffer::RingBuffer<T> as ring_buffer_smoketest::collections::queue::Queue<T>>::push>:
   10134:	1101                	addi	sp,sp,-32
   10136:	ce06                	sw	ra,28(sp)
   10138:	cc22                	sw	s0,24(sp)
   1013a:	ca26                	sw	s1,20(sp)
   1013c:	c84a                	sw	s2,16(sp)
   1013e:	c64e                	sw	s3,12(sp)
   10140:	c452                	sw	s4,8(sp)
   10142:	842a                	mv	s0,a0
   10144:	00452983          	lw	s3,4(a0)
   10148:	4504                	lw	s1,8(a0)
   1014a:	00c52a03          	lw	s4,12(a0)
   1014e:	892e                	mv	s2,a1
   10150:	00000097          	auipc	ra,0x0
   10154:	17a080e7          	jalr	378(ra) # 102ca <<ring_buffer_smoketest::collections::ring_buffer::RingBuffer<T> as ring_buffer_smoketest::collections::queue::Queue<T>>::is_full>
   10158:	4010                	lw	a2,0(s0)
   1015a:	cd19                	beqz	a0,10178 <<ring_buffer_smoketest::collections::ring_buffer::RingBuffer<T> as ring_buffer_smoketest::collections::queue::Queue<T>>::push+0x44>
   1015c:	00148513          	addi	a0,s1,1
   10160:	048a                	slli	s1,s1,0x2
   10162:	94b2                	add	s1,s1,a2
   10164:	013546b3          	xor	a3,a0,s3
   10168:	408c                	lw	a1,0(s1)
   1016a:	0016b693          	seqz	a3,a3
   1016e:	16fd                	addi	a3,a3,-1
   10170:	8d75                	and	a0,a0,a3
   10172:	c408                	sw	a0,8(s0)
   10174:	4505                	li	a0,1
   10176:	a009                	j	10178 <<ring_buffer_smoketest::collections::ring_buffer::RingBuffer<T> as ring_buffer_smoketest::collections::queue::Queue<T>>::push+0x44>
   10178:	002a1693          	slli	a3,s4,0x2
   1017c:	0a05                	addi	s4,s4,1
   1017e:	9636                	add	a2,a2,a3
   10180:	013a46b3          	xor	a3,s4,s3
   10184:	01262023          	sw	s2,0(a2)
   10188:	0016b613          	seqz	a2,a3
   1018c:	167d                	addi	a2,a2,-1
   1018e:	01467633          	and	a2,a2,s4
   10192:	c450                	sw	a2,12(s0)
   10194:	40f2                	lw	ra,28(sp)
   10196:	4462                	lw	s0,24(sp)
   10198:	44d2                	lw	s1,20(sp)
   1019a:	4942                	lw	s2,16(sp)
   1019c:	49b2                	lw	s3,12(sp)
   1019e:	4a22                	lw	s4,8(sp)
   101a0:	6105                	addi	sp,sp,32
   101a2:	8082                	ret

000101a4 <<ring_buffer_smoketest::collections::ring_buffer::RingBuffer<T> as ring_buffer_smoketest::collections::queue::Queue<T>>::empty>:
   101a4:	4581                	li	a1,0
   101a6:	c50c                	sw	a1,8(a0)
   101a8:	c54c                	sw	a1,12(a0)
   101aa:	8082                	ret

000101ac <<ring_buffer_smoketest::collections::ring_buffer::RingBuffer<T> as ring_buffer_smoketest::collections::queue::Queue<T>>::retain>:
   101ac:	1141                	addi	sp,sp,-16
   101ae:	00052e83          	lw	t4,0(a0)
   101b2:	414c                	lw	a1,4(a0)
   101b4:	00852f03          	lw	t5,8(a0)
   101b8:	00c52e03          	lw	t3,12(a0)
   101bc:	00810813          	addi	a6,sp,8
   101c0:	4889                	li	a7,2
   101c2:	00c10293          	addi	t0,sp,12
   101c6:	800003b7          	lui	t2,0x80000
   101ca:	537d                	li	t1,-1
   101cc:	867a                	mv	a2,t5
   101ce:	05cf0763          	beq	t5,t3,1021c <<ring_buffer_smoketest::collections::ring_buffer::RingBuffer<T> as ring_buffer_smoketest::collections::queue::Queue<T>>::retain+0x70>
   101d2:	00261693          	slli	a3,a2,0x2
   101d6:	96f6                	add	a3,a3,t4
   101d8:	4298                	lw	a4,0(a3)
   101da:	c43a                	sw	a4,8(sp)
   101dc:	c646                	sw	a7,12(sp)
   101de:	4722                	lw	a4,8(sp)
   101e0:	47b2                	lw	a5,12(sp)
   101e2:	c3a9                	beqz	a5,10224 <<ring_buffer_smoketest::collections::ring_buffer::RingBuffer<T> as ring_buffer_smoketest::collections::queue::Queue<T>>::retain+0x78>
   101e4:	00771463          	bne	a4,t2,101ec <<ring_buffer_smoketest::collections::ring_buffer::RingBuffer<T> as ring_buffer_smoketest::collections::queue::Queue<T>>::retain+0x40>
   101e8:	02678e63          	beq	a5,t1,10224 <<ring_buffer_smoketest::collections::ring_buffer::RingBuffer<T> as ring_buffer_smoketest::collections::queue::Queue<T>>::retain+0x78>
   101ec:	02f76733          	rem	a4,a4,a5
   101f0:	ef09                	bnez	a4,1020a <<ring_buffer_smoketest::collections::ring_buffer::RingBuffer<T> as ring_buffer_smoketest::collections::queue::Queue<T>>::retain+0x5e>
   101f2:	01e60963          	beq	a2,t5,10204 <<ring_buffer_smoketest::collections::ring_buffer::RingBuffer<T> as ring_buffer_smoketest::collections::queue::Queue<T>>::retain+0x58>
   101f6:	02bf7b63          	bgeu	t5,a1,1022c <<ring_buffer_smoketest::collections::ring_buffer::RingBuffer<T> as ring_buffer_smoketest::collections::queue::Queue<T>>::retain+0x80>
   101fa:	4294                	lw	a3,0(a3)
   101fc:	002f1713          	slli	a4,t5,0x2
   10200:	9776                	add	a4,a4,t4
   10202:	c314                	sw	a3,0(a4)
   10204:	0f05                	addi	t5,t5,1
   10206:	02bf7f33          	remu	t5,t5,a1
   1020a:	0605                	addi	a2,a2,1
   1020c:	00b646b3          	xor	a3,a2,a1
   10210:	0016b693          	seqz	a3,a3
   10214:	16fd                	addi	a3,a3,-1
   10216:	8e75                	and	a2,a2,a3
   10218:	fbc61de3          	bne	a2,t3,101d2 <<ring_buffer_smoketest::collections::ring_buffer::RingBuffer<T> as ring_buffer_smoketest::collections::queue::Queue<T>>::retain+0x26>
   1021c:	01e52623          	sw	t5,12(a0)
   10220:	0141                	addi	sp,sp,16
   10222:	8082                	ret
   10224:	00000097          	auipc	ra,0x0
   10228:	e82080e7          	jalr	-382(ra) # 100a6 <core::panicking::panic_const::panic_const_rem_by_zero>
   1022c:	857a                	mv	a0,t5
   1022e:	00000097          	auipc	ra,0x0
   10232:	e66080e7          	jalr	-410(ra) # 10094 <core::panicking::panic_bounds_check>

00010236 <<ring_buffer_smoketest::collections::ring_buffer::RingBuffer<T> as ring_buffer_smoketest::collections::queue::Queue<T>>::dequeue>:
   10236:	1141                	addi	sp,sp,-16
   10238:	c606                	sw	ra,12(sp)
   1023a:	c422                	sw	s0,8(sp)
   1023c:	c226                	sw	s1,4(sp)
   1023e:	c04a                	sw	s2,0(sp)
   10240:	842a                	mv	s0,a0
   10242:	00452903          	lw	s2,4(a0)
   10246:	4504                	lw	s1,8(a0)
   10248:	00000097          	auipc	ra,0x0
   1024c:	e6e080e7          	jalr	-402(ra) # 100b6 <<ring_buffer_smoketest::collections::ring_buffer::RingBuffer<T> as ring_buffer_smoketest::collections::queue::Queue<T>>::has_elements>
   10250:	c105                	beqz	a0,10270 <<ring_buffer_smoketest::collections::ring_buffer::RingBuffer<T> as ring_buffer_smoketest::collections::queue::Queue<T>>::dequeue+0x3a>
   10252:	00148513          	addi	a0,s1,1
   10256:	400c                	lw	a1,0(s0)
   10258:	048a                	slli	s1,s1,0x2
   1025a:	01254633          	xor	a2,a0,s2
   1025e:	00163613          	seqz	a2,a2
   10262:	95a6                	add	a1,a1,s1
   10264:	418c                	lw	a1,0(a1)
   10266:	167d                	addi	a2,a2,-1
   10268:	8d71                	and	a0,a0,a2
   1026a:	c408                	sw	a0,8(s0)
   1026c:	4505                	li	a0,1
   1026e:	a009                	j	10270 <<ring_buffer_smoketest::collections::ring_buffer::RingBuffer<T> as ring_buffer_smoketest::collections::queue::Queue<T>>::dequeue+0x3a>
   10270:	40b2                	lw	ra,12(sp)
   10272:	4422                	lw	s0,8(sp)
   10274:	4492                	lw	s1,4(sp)
   10276:	4902                	lw	s2,0(sp)
   10278:	0141                	addi	sp,sp,16
   1027a:	8082                	ret

0001027c <<ring_buffer_smoketest::collections::ring_buffer::RingBuffer<T> as ring_buffer_smoketest::collections::queue::Queue<T>>::enqueue>:
   1027c:	1101                	addi	sp,sp,-32
   1027e:	ce06                	sw	ra,28(sp)
   10280:	cc22                	sw	s0,24(sp)
   10282:	ca26                	sw	s1,20(sp)
   10284:	c84a                	sw	s2,16(sp)
   10286:	c64e                	sw	s3,12(sp)
   10288:	842a                	mv	s0,a0
   1028a:	00452983          	lw	s3,4(a0)
   1028e:	4544                	lw	s1,12(a0)
   10290:	892e                	mv	s2,a1
   10292:	00000097          	auipc	ra,0x0
   10296:	038080e7          	jalr	56(ra) # 102ca <<ring_buffer_smoketest::collections::ring_buffer::RingBuffer<T> as ring_buffer_smoketest::collections::queue::Queue<T>>::is_full>
   1029a:	ed19                	bnez	a0,102b8 <<ring_buffer_smoketest::collections::ring_buffer::RingBuffer<T> as ring_buffer_smoketest::collections::queue::Queue<T>>::enqueue+0x3c>
   1029c:	400c                	lw	a1,0(s0)
   1029e:	00249613          	slli	a2,s1,0x2
   102a2:	0485                	addi	s1,s1,1
   102a4:	0134c6b3          	xor	a3,s1,s3
   102a8:	0016b693          	seqz	a3,a3
   102ac:	16fd                	addi	a3,a3,-1
   102ae:	95b2                	add	a1,a1,a2
   102b0:	8ee5                	and	a3,a3,s1
   102b2:	0125a023          	sw	s2,0(a1)
   102b6:	c454                	sw	a3,12(s0)
   102b8:	00154513          	xori	a0,a0,1
   102bc:	40f2                	lw	ra,28(sp)
   102be:	4462                	lw	s0,24(sp)
   102c0:	44d2                	lw	s1,20(sp)
   102c2:	4942                	lw	s2,16(sp)
   102c4:	49b2                	lw	s3,12(sp)
   102c6:	6105                	addi	sp,sp,32
   102c8:	8082                	ret

000102ca <<ring_buffer_smoketest::collections::ring_buffer::RingBuffer<T> as ring_buffer_smoketest::collections::queue::Queue<T>>::is_full>:
   102ca:	454c                	lw	a1,12(a0)
   102cc:	4150                	lw	a2,4(a0)
   102ce:	4508                	lw	a0,8(a0)
   102d0:	0585                	addi	a1,a1,1
   102d2:	8e2d                	xor	a2,a2,a1
   102d4:	00163613          	seqz	a2,a2
   102d8:	167d                	addi	a2,a2,-1
   102da:	8df1                	and	a1,a1,a2
   102dc:	8d2d                	xor	a0,a0,a1
   102de:	00153513          	seqz	a0,a0
   102e2:	8082                	ret

000102e4 <ring_buffer_smoketest::collections::ring_buffer::RingBuffer<T>::available_len>:
   102e4:	1141                	addi	sp,sp,-16
   102e6:	c606                	sw	ra,12(sp)
   102e8:	c422                	sw	s0,8(sp)
   102ea:	4140                	lw	s0,4(a0)
   102ec:	00000097          	auipc	ra,0x0
   102f0:	e2a080e7          	jalr	-470(ra) # 10116 <<ring_buffer_smoketest::collections::ring_buffer::RingBuffer<T> as ring_buffer_smoketest::collections::queue::Queue<T>>::len>
   102f4:	fff54513          	not	a0,a0
   102f8:	9522                	add	a0,a0,s0
   102fa:	00a435b3          	sltu	a1,s0,a0
   102fe:	15fd                	addi	a1,a1,-1
   10300:	8d6d                	and	a0,a0,a1
   10302:	40b2                	lw	ra,12(sp)
   10304:	4422                	lw	s0,8(sp)
   10306:	0141                	addi	sp,sp,16
   10308:	8082                	ret

0001030a <ring_buffer_smoketest::collections::ring_buffer::RingBuffer<T>::new>:
   1030a:	4615                	li	a2,5
   1030c:	c10c                	sw	a1,0(a0)
   1030e:	c150                	sw	a2,4(a0)
   10310:	4581                	li	a1,0
   10312:	c50c                	sw	a1,8(a0)
   10314:	c54c                	sw	a1,12(a0)
   10316:	8082                	ret

00010318 <ring_buffer_smoketest::collections::ring_buffer::RingBuffer<T>::as_slices>:
   10318:	4594                	lw	a3,8(a1)
   1031a:	45d0                	lw	a2,12(a1)
   1031c:	00c6f963          	bgeu	a3,a2,1032e <ring_buffer_smoketest::collections::ring_buffer::RingBuffer<T>::as_slices+0x16>
   10320:	418c                	lw	a1,0(a1)
   10322:	8e15                	sub	a2,a2,a3
   10324:	068a                	slli	a3,a3,0x2
   10326:	95b6                	add	a1,a1,a3
   10328:	c10c                	sw	a1,0(a0)
   1032a:	c150                	sw	a2,4(a0)
   1032c:	a025                	j	10354 <ring_buffer_smoketest::collections::ring_buffer::RingBuffer<T>::as_slices+0x3c>
   1032e:	02d67163          	bgeu	a2,a3,10350 <ring_buffer_smoketest::collections::ring_buffer::RingBuffer<T>::as_slices+0x38>
   10332:	41d8                	lw	a4,4(a1)
   10334:	418c                	lw	a1,0(a1)
   10336:	00269793          	slli	a5,a3,0x2
   1033a:	8f15                	sub	a4,a4,a3
   1033c:	00163693          	seqz	a3,a2
   10340:	16fd                	addi	a3,a3,-1
   10342:	97ae                	add	a5,a5,a1
   10344:	8df5                	and	a1,a1,a3
   10346:	c11c                	sw	a5,0(a0)
   10348:	c158                	sw	a4,4(a0)
   1034a:	c50c                	sw	a1,8(a0)
   1034c:	c550                	sw	a2,12(a0)
   1034e:	8082                	ret
   10350:	00052023          	sw	zero,0(a0)
   10354:	00052423          	sw	zero,8(a0)
   10358:	8082                	ret

0001035a <main>:
   1035a:	7179                	addi	sp,sp,-48
   1035c:	d606                	sw	ra,44(sp)
   1035e:	0028                	addi	a0,sp,8
   10360:	4651                	li	a2,20
   10362:	4581                	li	a1,0
   10364:	00000097          	auipc	ra,0x0
   10368:	1a6080e7          	jalr	422(ra) # 1050a <memset>
   1036c:	0868                	addi	a0,sp,28
   1036e:	002c                	addi	a1,sp,8
   10370:	00000097          	auipc	ra,0x0
   10374:	f9a080e7          	jalr	-102(ra) # 1030a <ring_buffer_smoketest::collections::ring_buffer::RingBuffer<T>::new>
   10378:	0868                	addi	a0,sp,28
   1037a:	00000097          	auipc	ra,0x0
   1037e:	076080e7          	jalr	118(ra) # 103f0 <call_available_len>
   10382:	0868                	addi	a0,sp,28
   10384:	00000097          	auipc	ra,0x0
   10388:	084080e7          	jalr	132(ra) # 10408 <call_as_slices>
   1038c:	0868                	addi	a0,sp,28
   1038e:	00000097          	auipc	ra,0x0
   10392:	096080e7          	jalr	150(ra) # 10424 <call_has_elements>
   10396:	0868                	addi	a0,sp,28
   10398:	00000097          	auipc	ra,0x0
   1039c:	0a8080e7          	jalr	168(ra) # 10440 <call_is_full>
   103a0:	0868                	addi	a0,sp,28
   103a2:	00000097          	auipc	ra,0x0
   103a6:	0ba080e7          	jalr	186(ra) # 1045c <call_len>
   103aa:	0868                	addi	a0,sp,28
   103ac:	00000097          	auipc	ra,0x0
   103b0:	0c8080e7          	jalr	200(ra) # 10474 <call_enqueue>
   103b4:	0868                	addi	a0,sp,28
   103b6:	00000097          	auipc	ra,0x0
   103ba:	0e2080e7          	jalr	226(ra) # 10498 <call_dequeue>
   103be:	0868                	addi	a0,sp,28
   103c0:	00000097          	auipc	ra,0x0
   103c4:	0f2080e7          	jalr	242(ra) # 104b2 <call_push>
   103c8:	0868                	addi	a0,sp,28
   103ca:	00000097          	auipc	ra,0x0
   103ce:	10a080e7          	jalr	266(ra) # 104d4 <call_remove_first_matching>
   103d2:	0868                	addi	a0,sp,28
   103d4:	00000097          	auipc	ra,0x0
   103d8:	dd8080e7          	jalr	-552(ra) # 101ac <<ring_buffer_smoketest::collections::ring_buffer::RingBuffer<T> as ring_buffer_smoketest::collections::queue::Queue<T>>::retain>
   103dc:	0868                	addi	a0,sp,28
   103de:	00000097          	auipc	ra,0x0
   103e2:	dc6080e7          	jalr	-570(ra) # 101a4 <<ring_buffer_smoketest::collections::ring_buffer::RingBuffer<T> as ring_buffer_smoketest::collections::queue::Queue<T>>::empty>
   103e6:	a001                	j	103e6 <main+0x8c>

000103e8 <_start>:
   103e8:	00000097          	auipc	ra,0x0
   103ec:	f72080e7          	jalr	-142(ra) # 1035a <main>

000103f0 <call_available_len>:
   103f0:	1141                	addi	sp,sp,-16
   103f2:	c606                	sw	ra,12(sp)
   103f4:	00000097          	auipc	ra,0x0
   103f8:	ef0080e7          	jalr	-272(ra) # 102e4 <ring_buffer_smoketest::collections::ring_buffer::RingBuffer<T>::available_len>
   103fc:	c42a                	sw	a0,8(sp)
   103fe:	0028                	addi	a0,sp,8
   10400:	00000317          	auipc	t1,0x0
   10404:	10430067          	jr	260(t1) # 10504 <OUTLINED_FUNCTION_0>

00010408 <call_as_slices>:
   10408:	1101                	addi	sp,sp,-32
   1040a:	ce06                	sw	ra,28(sp)
   1040c:	cc22                	sw	s0,24(sp)
   1040e:	85aa                	mv	a1,a0
   10410:	0028                	addi	a0,sp,8
   10412:	0020                	addi	s0,sp,8
   10414:	00000097          	auipc	ra,0x0
   10418:	f04080e7          	jalr	-252(ra) # 10318 <ring_buffer_smoketest::collections::ring_buffer::RingBuffer<T>::as_slices>
   1041c:	40f2                	lw	ra,28(sp)
   1041e:	4462                	lw	s0,24(sp)
   10420:	6105                	addi	sp,sp,32
   10422:	8082                	ret

00010424 <call_has_elements>:
   10424:	1141                	addi	sp,sp,-16
   10426:	c606                	sw	ra,12(sp)
   10428:	00000097          	auipc	ra,0x0
   1042c:	c8e080e7          	jalr	-882(ra) # 100b6 <<ring_buffer_smoketest::collections::ring_buffer::RingBuffer<T> as ring_buffer_smoketest::collections::queue::Queue<T>>::has_elements>
   10430:	00a105a3          	sb	a0,11(sp)
   10434:	00b10513          	addi	a0,sp,11
   10438:	00000317          	auipc	t1,0x0
   1043c:	0cc30067          	jr	204(t1) # 10504 <OUTLINED_FUNCTION_0>

00010440 <call_is_full>:
   10440:	1141                	addi	sp,sp,-16
   10442:	c606                	sw	ra,12(sp)
   10444:	00000097          	auipc	ra,0x0
   10448:	e86080e7          	jalr	-378(ra) # 102ca <<ring_buffer_smoketest::collections::ring_buffer::RingBuffer<T> as ring_buffer_smoketest::collections::queue::Queue<T>>::is_full>
   1044c:	00a105a3          	sb	a0,11(sp)
   10450:	00b10513          	addi	a0,sp,11
   10454:	00000317          	auipc	t1,0x0
   10458:	0b030067          	jr	176(t1) # 10504 <OUTLINED_FUNCTION_0>

0001045c <call_len>:
   1045c:	1141                	addi	sp,sp,-16
   1045e:	c606                	sw	ra,12(sp)
   10460:	00000097          	auipc	ra,0x0
   10464:	cb6080e7          	jalr	-842(ra) # 10116 <<ring_buffer_smoketest::collections::ring_buffer::RingBuffer<T> as ring_buffer_smoketest::collections::queue::Queue<T>>::len>
   10468:	c42a                	sw	a0,8(sp)
   1046a:	0028                	addi	a0,sp,8
   1046c:	00000317          	auipc	t1,0x0
   10470:	09830067          	jr	152(t1) # 10504 <OUTLINED_FUNCTION_0>

00010474 <call_enqueue>:
   10474:	1141                	addi	sp,sp,-16
   10476:	c606                	sw	ra,12(sp)
   10478:	4585                	li	a1,1
   1047a:	c22e                	sw	a1,4(sp)
   1047c:	004c                	addi	a1,sp,4
   1047e:	4592                	lw	a1,4(sp)
   10480:	00000097          	auipc	ra,0x0
   10484:	dfc080e7          	jalr	-516(ra) # 1027c <<ring_buffer_smoketest::collections::ring_buffer::RingBuffer<T> as ring_buffer_smoketest::collections::queue::Queue<T>>::enqueue>
   10488:	00a105a3          	sb	a0,11(sp)
   1048c:	00b10513          	addi	a0,sp,11
   10490:	00000317          	auipc	t1,0x0
   10494:	07430067          	jr	116(t1) # 10504 <OUTLINED_FUNCTION_0>

00010498 <call_dequeue>:
   10498:	1141                	addi	sp,sp,-16
   1049a:	c606                	sw	ra,12(sp)
   1049c:	00000097          	auipc	ra,0x0
   104a0:	d9a080e7          	jalr	-614(ra) # 10236 <<ring_buffer_smoketest::collections::ring_buffer::RingBuffer<T> as ring_buffer_smoketest::collections::queue::Queue<T>>::dequeue>
   104a4:	c22a                	sw	a0,4(sp)
   104a6:	c42e                	sw	a1,8(sp)
   104a8:	0048                	addi	a0,sp,4
   104aa:	00000317          	auipc	t1,0x0
   104ae:	05a30067          	jr	90(t1) # 10504 <OUTLINED_FUNCTION_0>

000104b2 <call_push>:
   104b2:	1141                	addi	sp,sp,-16
   104b4:	c606                	sw	ra,12(sp)
   104b6:	4589                	li	a1,2
   104b8:	c02e                	sw	a1,0(sp)
   104ba:	858a                	mv	a1,sp
   104bc:	4582                	lw	a1,0(sp)
   104be:	00000097          	auipc	ra,0x0
   104c2:	c76080e7          	jalr	-906(ra) # 10134 <<ring_buffer_smoketest::collections::ring_buffer::RingBuffer<T> as ring_buffer_smoketest::collections::queue::Queue<T>>::push>
   104c6:	c22a                	sw	a0,4(sp)
   104c8:	c42e                	sw	a1,8(sp)
   104ca:	0048                	addi	a0,sp,4
   104cc:	00000317          	auipc	t1,0x0
   104d0:	03830067          	jr	56(t1) # 10504 <OUTLINED_FUNCTION_0>

000104d4 <call_remove_first_matching>:
   104d4:	1101                	addi	sp,sp,-32
   104d6:	ce06                	sw	ra,28(sp)
   104d8:	cc22                	sw	s0,24(sp)
   104da:	ca26                	sw	s1,20(sp)
   104dc:	842a                	mv	s0,a0
   104de:	458d                	li	a1,3
   104e0:	448d                	li	s1,3
   104e2:	00000097          	auipc	ra,0x0
   104e6:	d9a080e7          	jalr	-614(ra) # 1027c <<ring_buffer_smoketest::collections::ring_buffer::RingBuffer<T> as ring_buffer_smoketest::collections::queue::Queue<T>>::enqueue>
   104ea:	8522                	mv	a0,s0
   104ec:	00000097          	auipc	ra,0x0
   104f0:	bd6080e7          	jalr	-1066(ra) # 100c2 <<ring_buffer_smoketest::collections::ring_buffer::RingBuffer<T> as ring_buffer_smoketest::collections::queue::Queue<T>>::remove_first_matching>
   104f4:	c62a                	sw	a0,12(sp)
   104f6:	c826                	sw	s1,16(sp)
   104f8:	0068                	addi	a0,sp,12
   104fa:	40f2                	lw	ra,28(sp)
   104fc:	4462                	lw	s0,24(sp)
   104fe:	44d2                	lw	s1,20(sp)
   10500:	6105                	addi	sp,sp,32
   10502:	8082                	ret

00010504 <OUTLINED_FUNCTION_0>:
   10504:	40b2                	lw	ra,12(sp)
   10506:	0141                	addi	sp,sp,16
   10508:	8082                	ret

0001050a <memset>:
   1050a:	433d                	li	t1,15
   1050c:	872a                	mv	a4,a0
   1050e:	02c37363          	bgeu	t1,a2,10534 <memset+0x2a>
   10512:	00f77793          	andi	a5,a4,15
   10516:	efbd                	bnez	a5,10594 <memset+0x8a>
   10518:	e5ad                	bnez	a1,10582 <memset+0x78>
   1051a:	ff067693          	andi	a3,a2,-16
   1051e:	8a3d                	andi	a2,a2,15
   10520:	96ba                	add	a3,a3,a4
   10522:	c30c                	sw	a1,0(a4)
   10524:	c34c                	sw	a1,4(a4)
   10526:	c70c                	sw	a1,8(a4)
   10528:	c74c                	sw	a1,12(a4)
   1052a:	0741                	addi	a4,a4,16
   1052c:	fed76be3          	bltu	a4,a3,10522 <memset+0x18>
   10530:	e211                	bnez	a2,10534 <memset+0x2a>
   10532:	8082                	ret
   10534:	40c306b3          	sub	a3,t1,a2
   10538:	068a                	slli	a3,a3,0x2
   1053a:	00000297          	auipc	t0,0x0
   1053e:	9696                	add	a3,a3,t0
   10540:	00a68067          	jr	10(a3)
   10544:	00b70723          	sb	a1,14(a4)
   10548:	00b706a3          	sb	a1,13(a4)
   1054c:	00b70623          	sb	a1,12(a4)
   10550:	00b705a3          	sb	a1,11(a4)
   10554:	00b70523          	sb	a1,10(a4)
   10558:	00b704a3          	sb	a1,9(a4)
   1055c:	00b70423          	sb	a1,8(a4)
   10560:	00b703a3          	sb	a1,7(a4)
   10564:	00b70323          	sb	a1,6(a4)
   10568:	00b702a3          	sb	a1,5(a4)
   1056c:	00b70223          	sb	a1,4(a4)
   10570:	00b701a3          	sb	a1,3(a4)
   10574:	00b70123          	sb	a1,2(a4)
   10578:	00b700a3          	sb	a1,1(a4)
   1057c:	00b70023          	sb	a1,0(a4)
   10580:	8082                	ret
   10582:	0ff5f593          	zext.b	a1,a1
   10586:	00859693          	slli	a3,a1,0x8
   1058a:	8dd5                	or	a1,a1,a3
   1058c:	01059693          	slli	a3,a1,0x10
   10590:	8dd5                	or	a1,a1,a3
   10592:	b761                	j	1051a <memset+0x10>
   10594:	00279693          	slli	a3,a5,0x2
   10598:	00000297          	auipc	t0,0x0
   1059c:	9696                	add	a3,a3,t0
   1059e:	8286                	mv	t0,ra
   105a0:	fa8680e7          	jalr	-88(a3)
   105a4:	8096                	mv	ra,t0
   105a6:	17c1                	addi	a5,a5,-16
   105a8:	8f1d                	sub	a4,a4,a5
   105aa:	963e                	add	a2,a2,a5
   105ac:	f8c374e3          	bgeu	t1,a2,10534 <memset+0x2a>
   105b0:	b7a5                	j	10518 <memset+0xe>
