
target/riscv32imac-unknown-none-elf/release/ring-buffer-smoketest:     file format elf32-littleriscv


Disassembly of section .text:

00010094 <core::panicking::panic_bounds_check>:
   10094:	1141                	addi	sp,sp,-16
   10096:	c606                	sw	ra,12(sp)
   10098:	c422                	sw	s0,8(sp)
   1009a:	0800                	addi	s0,sp,16
   1009c:	00000097          	auipc	ra,0x0
   100a0:	008080e7          	jalr	8(ra) # 100a4 <core::panicking::panic_fmt>

000100a4 <core::panicking::panic_fmt>:
   100a4:	a001                	j	100a4 <core::panicking::panic_fmt>

000100a6 <core::panicking::panic_const::panic_const_rem_by_zero>:
   100a6:	1141                	addi	sp,sp,-16
   100a8:	c606                	sw	ra,12(sp)
   100aa:	c422                	sw	s0,8(sp)
   100ac:	0800                	addi	s0,sp,16
   100ae:	00000097          	auipc	ra,0x0
   100b2:	ff6080e7          	jalr	-10(ra) # 100a4 <core::panicking::panic_fmt>

000100b6 <<ring_buffer_smoketest::collections::ring_buffer::RingBuffer<T> as ring_buffer_smoketest::collections::queue::Queue<T>>::has_elements>:
   100b6:	450c                	lw	a1,8(a0)
   100b8:	4548                	lw	a0,12(a0)
   100ba:	8d2d                	xor	a0,a0,a1
   100bc:	00a03533          	snez	a0,a0
   100c0:	8082                	ret

000100c2 <<ring_buffer_smoketest::collections::ring_buffer::RingBuffer<T> as ring_buffer_smoketest::collections::queue::Queue<T>>::remove_first_matching>:
   100c2:	410c                	lw	a1,0(a0)
   100c4:	00452803          	lw	a6,4(a0)
   100c8:	4510                	lw	a2,8(a0)
   100ca:	4554                	lw	a3,12(a0)
   100cc:	478d                	li	a5,3
   100ce:	02d60163          	beq	a2,a3,100f0 <<ring_buffer_smoketest::collections::ring_buffer::RingBuffer<T> as ring_buffer_smoketest::collections::queue::Queue<T>>::remove_first_matching+0x2e>
   100d2:	00261713          	slli	a4,a2,0x2
   100d6:	972e                	add	a4,a4,a1
   100d8:	4318                	lw	a4,0(a4)
   100da:	02f70563          	beq	a4,a5,10104 <<ring_buffer_smoketest::collections::ring_buffer::RingBuffer<T> as ring_buffer_smoketest::collections::queue::Queue<T>>::remove_first_matching+0x42>
   100de:	0605                	addi	a2,a2,1
   100e0:	01064733          	xor	a4,a2,a6
   100e4:	00173713          	seqz	a4,a4
   100e8:	177d                	addi	a4,a4,-1
   100ea:	8e79                	and	a2,a2,a4
   100ec:	fed613e3          	bne	a2,a3,100d2 <<ring_buffer_smoketest::collections::ring_buffer::RingBuffer<T> as ring_buffer_smoketest::collections::queue::Queue<T>>::remove_first_matching+0x10>
   100f0:	4501                	li	a0,0
   100f2:	8082                	ret
   100f4:	00279713          	slli	a4,a5,0x2
   100f8:	972e                	add	a4,a4,a1
   100fa:	4318                	lw	a4,0(a4)
   100fc:	060a                	slli	a2,a2,0x2
   100fe:	962e                	add	a2,a2,a1
   10100:	c218                	sw	a4,0(a2)
   10102:	863e                	mv	a2,a5
   10104:	00160713          	addi	a4,a2,1
   10108:	030777b3          	remu	a5,a4,a6
   1010c:	fed794e3          	bne	a5,a3,100f4 <<ring_buffer_smoketest::collections::ring_buffer::RingBuffer<T> as ring_buffer_smoketest::collections::queue::Queue<T>>::remove_first_matching+0x32>
   10110:	c550                	sw	a2,12(a0)
   10112:	4505                	li	a0,1
   10114:	8082                	ret

00010116 <<ring_buffer_smoketest::collections::ring_buffer::RingBuffer<T> as ring_buffer_smoketest::collections::queue::Queue<T>>::len>:
   10116:	450c                	lw	a1,8(a0)
   10118:	4550                	lw	a2,12(a0)
   1011a:	00c5f563          	bgeu	a1,a2,10124 <<ring_buffer_smoketest::collections::ring_buffer::RingBuffer<T> as ring_buffer_smoketest::collections::queue::Queue<T>>::len+0xe>
   1011e:	40b60533          	sub	a0,a2,a1
   10122:	8082                	ret
   10124:	00b67663          	bgeu	a2,a1,10130 <<ring_buffer_smoketest::collections::ring_buffer::RingBuffer<T> as ring_buffer_smoketest::collections::queue::Queue<T>>::len+0x1a>
   10128:	4148                	lw	a0,4(a0)
   1012a:	8d0d                	sub	a0,a0,a1
   1012c:	9532                	add	a0,a0,a2
   1012e:	8082                	ret
   10130:	4501                	li	a0,0
   10132:	8082                	ret

00010134 <<ring_buffer_smoketest::collections::ring_buffer::RingBuffer<T> as ring_buffer_smoketest::collections::queue::Queue<T>>::push>:
   10134:	1101                	addi	sp,sp,-32
   10136:	ce06                	sw	ra,28(sp)
   10138:	cc22                	sw	s0,24(sp)
   1013a:	ca26                	sw	s1,20(sp)
   1013c:	c84a                	sw	s2,16(sp)
   1013e:	c64e                	sw	s3,12(sp)
   10140:	c452                	sw	s4,8(sp)
   10142:	842a                	mv	s0,a0
   10144:	00452983          	lw	s3,4(a0)
   10148:	4504                	lw	s1,8(a0)
   1014a:	00c52a03          	lw	s4,12(a0)
   1014e:	892e                	mv	s2,a1
   10150:	00000097          	auipc	ra,0x0
   10154:	17a080e7          	jalr	378(ra) # 102ca <<ring_buffer_smoketest::collections::ring_buffer::RingBuffer<T> as ring_buffer_smoketest::collections::queue::Queue<T>>::is_full>
   10158:	4010                	lw	a2,0(s0)
   1015a:	cd19                	beqz	a0,10178 <<ring_buffer_smoketest::collections::ring_buffer::RingBuffer<T> as ring_buffer_smoketest::collections::queue::Queue<T>>::push+0x44>
   1015c:	00148513          	addi	a0,s1,1
   10160:	048a                	slli	s1,s1,0x2
   10162:	94b2                	add	s1,s1,a2
   10164:	013546b3          	xor	a3,a0,s3
   10168:	408c                	lw	a1,0(s1)
   1016a:	0016b693          	seqz	a3,a3
   1016e:	16fd                	addi	a3,a3,-1
   10170:	8d75                	and	a0,a0,a3
   10172:	c408                	sw	a0,8(s0)
   10174:	4505                	li	a0,1
   10176:	a009                	j	10178 <<ring_buffer_smoketest::collections::ring_buffer::RingBuffer<T> as ring_buffer_smoketest::collections::queue::Queue<T>>::push+0x44>
   10178:	002a1693          	slli	a3,s4,0x2
   1017c:	0a05                	addi	s4,s4,1
   1017e:	9636                	add	a2,a2,a3
   10180:	013a46b3          	xor	a3,s4,s3
   10184:	01262023          	sw	s2,0(a2)
   10188:	0016b613          	seqz	a2,a3
   1018c:	167d                	addi	a2,a2,-1
   1018e:	01467633          	and	a2,a2,s4
   10192:	c450                	sw	a2,12(s0)
   10194:	40f2                	lw	ra,28(sp)
   10196:	4462                	lw	s0,24(sp)
   10198:	44d2                	lw	s1,20(sp)
   1019a:	4942                	lw	s2,16(sp)
   1019c:	49b2                	lw	s3,12(sp)
   1019e:	4a22                	lw	s4,8(sp)
   101a0:	6105                	addi	sp,sp,32
   101a2:	8082                	ret

000101a4 <<ring_buffer_smoketest::collections::ring_buffer::RingBuffer<T> as ring_buffer_smoketest::collections::queue::Queue<T>>::empty>:
   101a4:	4581                	li	a1,0
   101a6:	c50c                	sw	a1,8(a0)
   101a8:	c54c                	sw	a1,12(a0)
   101aa:	8082                	ret

000101ac <<ring_buffer_smoketest::collections::ring_buffer::RingBuffer<T> as ring_buffer_smoketest::collections::queue::Queue<T>>::retain>:
   101ac:	1141                	addi	sp,sp,-16
   101ae:	00052e83          	lw	t4,0(a0)
   101b2:	414c                	lw	a1,4(a0)
   101b4:	00852f03          	lw	t5,8(a0)
   101b8:	00c52e03          	lw	t3,12(a0)
   101bc:	00810813          	addi	a6,sp,8
   101c0:	4889                	li	a7,2
   101c2:	00c10293          	addi	t0,sp,12
   101c6:	800003b7          	lui	t2,0x80000
   101ca:	537d                	li	t1,-1
   101cc:	867a                	mv	a2,t5
   101ce:	05cf0763          	beq	t5,t3,1021c <<ring_buffer_smoketest::collections::ring_buffer::RingBuffer<T> as ring_buffer_smoketest::collections::queue::Queue<T>>::retain+0x70>
   101d2:	00261693          	slli	a3,a2,0x2
   101d6:	96f6                	add	a3,a3,t4
   101d8:	4298                	lw	a4,0(a3)
   101da:	c43a                	sw	a4,8(sp)
   101dc:	c646                	sw	a7,12(sp)
   101de:	4722                	lw	a4,8(sp)
   101e0:	47b2                	lw	a5,12(sp)
   101e2:	c3a9                	beqz	a5,10224 <<ring_buffer_smoketest::collections::ring_buffer::RingBuffer<T> as ring_buffer_smoketest::collections::queue::Queue<T>>::retain+0x78>
   101e4:	00771463          	bne	a4,t2,101ec <<ring_buffer_smoketest::collections::ring_buffer::RingBuffer<T> as ring_buffer_smoketest::collections::queue::Queue<T>>::retain+0x40>
   101e8:	02678e63          	beq	a5,t1,10224 <<ring_buffer_smoketest::collections::ring_buffer::RingBuffer<T> as ring_buffer_smoketest::collections::queue::Queue<T>>::retain+0x78>
   101ec:	02f76733          	rem	a4,a4,a5
   101f0:	ef09                	bnez	a4,1020a <<ring_buffer_smoketest::collections::ring_buffer::RingBuffer<T> as ring_buffer_smoketest::collections::queue::Queue<T>>::retain+0x5e>
   101f2:	01e60963          	beq	a2,t5,10204 <<ring_buffer_smoketest::collections::ring_buffer::RingBuffer<T> as ring_buffer_smoketest::collections::queue::Queue<T>>::retain+0x58>
   101f6:	02bf7b63          	bgeu	t5,a1,1022c <<ring_buffer_smoketest::collections::ring_buffer::RingBuffer<T> as ring_buffer_smoketest::collections::queue::Queue<T>>::retain+0x80>
   101fa:	4294                	lw	a3,0(a3)
   101fc:	002f1713          	slli	a4,t5,0x2
   10200:	9776                	add	a4,a4,t4
   10202:	c314                	sw	a3,0(a4)
   10204:	0f05                	addi	t5,t5,1
   10206:	02bf7f33          	remu	t5,t5,a1
   1020a:	0605                	addi	a2,a2,1
   1020c:	00b646b3          	xor	a3,a2,a1
   10210:	0016b693          	seqz	a3,a3
   10214:	16fd                	addi	a3,a3,-1
   10216:	8e75                	and	a2,a2,a3
   10218:	fbc61de3          	bne	a2,t3,101d2 <<ring_buffer_smoketest::collections::ring_buffer::RingBuffer<T> as ring_buffer_smoketest::collections::queue::Queue<T>>::retain+0x26>
   1021c:	01e52623          	sw	t5,12(a0)
   10220:	0141                	addi	sp,sp,16
   10222:	8082                	ret
   10224:	00000097          	auipc	ra,0x0
   10228:	e82080e7          	jalr	-382(ra) # 100a6 <core::panicking::panic_const::panic_const_rem_by_zero>
   1022c:	857a                	mv	a0,t5
   1022e:	00000097          	auipc	ra,0x0
   10232:	e66080e7          	jalr	-410(ra) # 10094 <core::panicking::panic_bounds_check>

00010236 <<ring_buffer_smoketest::collections::ring_buffer::RingBuffer<T> as ring_buffer_smoketest::collections::queue::Queue<T>>::dequeue>:
   10236:	1141                	addi	sp,sp,-16
   10238:	c606                	sw	ra,12(sp)
   1023a:	c422                	sw	s0,8(sp)
   1023c:	c226                	sw	s1,4(sp)
   1023e:	c04a                	sw	s2,0(sp)
   10240:	842a                	mv	s0,a0
   10242:	00452903          	lw	s2,4(a0)
   10246:	4504                	lw	s1,8(a0)
   10248:	00000097          	auipc	ra,0x0
   1024c:	e6e080e7          	jalr	-402(ra) # 100b6 <<ring_buffer_smoketest::collections::ring_buffer::RingBuffer<T> as ring_buffer_smoketest::collections::queue::Queue<T>>::has_elements>
   10250:	c105                	beqz	a0,10270 <<ring_buffer_smoketest::collections::ring_buffer::RingBuffer<T> as ring_buffer_smoketest::collections::queue::Queue<T>>::dequeue+0x3a>
   10252:	00148513          	addi	a0,s1,1
   10256:	400c                	lw	a1,0(s0)
   10258:	048a                	slli	s1,s1,0x2
   1025a:	01254633          	xor	a2,a0,s2
   1025e:	00163613          	seqz	a2,a2
   10262:	95a6                	add	a1,a1,s1
   10264:	418c                	lw	a1,0(a1)
   10266:	167d                	addi	a2,a2,-1
   10268:	8d71                	and	a0,a0,a2
   1026a:	c408                	sw	a0,8(s0)
   1026c:	4505                	li	a0,1
   1026e:	a009                	j	10270 <<ring_buffer_smoketest::collections::ring_buffer::RingBuffer<T> as ring_buffer_smoketest::collections::queue::Queue<T>>::dequeue+0x3a>
   10270:	40b2                	lw	ra,12(sp)
   10272:	4422                	lw	s0,8(sp)
   10274:	4492                	lw	s1,4(sp)
   10276:	4902                	lw	s2,0(sp)
   10278:	0141                	addi	sp,sp,16
   1027a:	8082                	ret

0001027c <<ring_buffer_smoketest::collections::ring_buffer::RingBuffer<T> as ring_buffer_smoketest::collections::queue::Queue<T>>::enqueue>:
   1027c:	1101                	addi	sp,sp,-32
   1027e:	ce06                	sw	ra,28(sp)
   10280:	cc22                	sw	s0,24(sp)
   10282:	ca26                	sw	s1,20(sp)
   10284:	c84a                	sw	s2,16(sp)
   10286:	c64e                	sw	s3,12(sp)
   10288:	842a                	mv	s0,a0
   1028a:	00452983          	lw	s3,4(a0)
   1028e:	4544                	lw	s1,12(a0)
   10290:	892e                	mv	s2,a1
   10292:	00000097          	auipc	ra,0x0
   10296:	038080e7          	jalr	56(ra) # 102ca <<ring_buffer_smoketest::collections::ring_buffer::RingBuffer<T> as ring_buffer_smoketest::collections::queue::Queue<T>>::is_full>
   1029a:	ed19                	bnez	a0,102b8 <<ring_buffer_smoketest::collections::ring_buffer::RingBuffer<T> as ring_buffer_smoketest::collections::queue::Queue<T>>::enqueue+0x3c>
   1029c:	400c                	lw	a1,0(s0)
   1029e:	00249613          	slli	a2,s1,0x2
   102a2:	0485                	addi	s1,s1,1
   102a4:	0134c6b3          	xor	a3,s1,s3
   102a8:	0016b693          	seqz	a3,a3
   102ac:	16fd                	addi	a3,a3,-1
   102ae:	95b2                	add	a1,a1,a2
   102b0:	8ee5                	and	a3,a3,s1
   102b2:	0125a023          	sw	s2,0(a1)
   102b6:	c454                	sw	a3,12(s0)
   102b8:	00154513          	xori	a0,a0,1
   102bc:	40f2                	lw	ra,28(sp)
   102be:	4462                	lw	s0,24(sp)
   102c0:	44d2                	lw	s1,20(sp)
   102c2:	4942                	lw	s2,16(sp)
   102c4:	49b2                	lw	s3,12(sp)
   102c6:	6105                	addi	sp,sp,32
   102c8:	8082                	ret

000102ca <<ring_buffer_smoketest::collections::ring_buffer::RingBuffer<T> as ring_buffer_smoketest::collections::queue::Queue<T>>::is_full>:
   102ca:	454c                	lw	a1,12(a0)
   102cc:	4150                	lw	a2,4(a0)
   102ce:	4508                	lw	a0,8(a0)
   102d0:	0585                	addi	a1,a1,1
   102d2:	8e2d                	xor	a2,a2,a1
   102d4:	00163613          	seqz	a2,a2
   102d8:	167d                	addi	a2,a2,-1
   102da:	8df1                	and	a1,a1,a2
   102dc:	8d2d                	xor	a0,a0,a1
   102de:	00153513          	seqz	a0,a0
   102e2:	8082                	ret

000102e4 <ring_buffer_smoketest::collections::ring_buffer::RingBuffer<T>::available_len>:
   102e4:	1141                	addi	sp,sp,-16
   102e6:	c606                	sw	ra,12(sp)
   102e8:	c422                	sw	s0,8(sp)
   102ea:	4140                	lw	s0,4(a0)
   102ec:	00000097          	auipc	ra,0x0
   102f0:	e2a080e7          	jalr	-470(ra) # 10116 <<ring_buffer_smoketest::collections::ring_buffer::RingBuffer<T> as ring_buffer_smoketest::collections::queue::Queue<T>>::len>
   102f4:	fff54513          	not	a0,a0
   102f8:	9522                	add	a0,a0,s0
   102fa:	00a435b3          	sltu	a1,s0,a0
   102fe:	15fd                	addi	a1,a1,-1
   10300:	8d6d                	and	a0,a0,a1
   10302:	40b2                	lw	ra,12(sp)
   10304:	4422                	lw	s0,8(sp)
   10306:	0141                	addi	sp,sp,16
   10308:	8082                	ret

0001030a <ring_buffer_smoketest::collections::ring_buffer::RingBuffer<T>::new>:
   1030a:	4615                	li	a2,5
   1030c:	c10c                	sw	a1,0(a0)
   1030e:	c150                	sw	a2,4(a0)
   10310:	4581                	li	a1,0
   10312:	c50c                	sw	a1,8(a0)
   10314:	c54c                	sw	a1,12(a0)
   10316:	8082                	ret

00010318 <ring_buffer_smoketest::collections::ring_buffer::RingBuffer<T>::as_slices>:
   10318:	4594                	lw	a3,8(a1)
   1031a:	45d0                	lw	a2,12(a1)
   1031c:	00c6f963          	bgeu	a3,a2,1032e <ring_buffer_smoketest::collections::ring_buffer::RingBuffer<T>::as_slices+0x16>
   10320:	418c                	lw	a1,0(a1)
   10322:	8e15                	sub	a2,a2,a3
   10324:	068a                	slli	a3,a3,0x2
   10326:	95b6                	add	a1,a1,a3
   10328:	c10c                	sw	a1,0(a0)
   1032a:	c150                	sw	a2,4(a0)
   1032c:	a025                	j	10354 <ring_buffer_smoketest::collections::ring_buffer::RingBuffer<T>::as_slices+0x3c>
   1032e:	02d67163          	bgeu	a2,a3,10350 <ring_buffer_smoketest::collections::ring_buffer::RingBuffer<T>::as_slices+0x38>
   10332:	41d8                	lw	a4,4(a1)
   10334:	418c                	lw	a1,0(a1)
   10336:	00269793          	slli	a5,a3,0x2
   1033a:	8f15                	sub	a4,a4,a3
   1033c:	00163693          	seqz	a3,a2
   10340:	16fd                	addi	a3,a3,-1
   10342:	97ae                	add	a5,a5,a1
   10344:	8df5                	and	a1,a1,a3
   10346:	c11c                	sw	a5,0(a0)
   10348:	c158                	sw	a4,4(a0)
   1034a:	c50c                	sw	a1,8(a0)
   1034c:	c550                	sw	a2,12(a0)
   1034e:	8082                	ret
   10350:	00052023          	sw	zero,0(a0)
   10354:	00052423          	sw	zero,8(a0)
   10358:	8082                	ret

0001035a <main>:
   1035a:	7179                	addi	sp,sp,-48
   1035c:	d606                	sw	ra,44(sp)
   1035e:	0028                	addi	a0,sp,8
   10360:	4651                	li	a2,20
   10362:	4581                	li	a1,0
   10364:	00000097          	auipc	ra,0x0
   10368:	1a6080e7          	jalr	422(ra) # 1050a <memset>
   1036c:	0868                	addi	a0,sp,28
   1036e:	002c                	addi	a1,sp,8
   10370:	00000097          	auipc	ra,0x0
   10374:	f9a080e7          	jalr	-102(ra) # 1030a <ring_buffer_smoketest::collections::ring_buffer::RingBuffer<T>::new>
   10378:	0868                	addi	a0,sp,28
   1037a:	00000097          	auipc	ra,0x0
   1037e:	076080e7          	jalr	118(ra) # 103f0 <call_available_len>
   10382:	0868                	addi	a0,sp,28
   10384:	00000097          	auipc	ra,0x0
   10388:	084080e7          	jalr	132(ra) # 10408 <call_as_slices>
   1038c:	0868                	addi	a0,sp,28
   1038e:	00000097          	auipc	ra,0x0
   10392:	096080e7          	jalr	150(ra) # 10424 <call_has_elements>
   10396:	0868                	addi	a0,sp,28
   10398:	00000097          	auipc	ra,0x0
   1039c:	0a8080e7          	jalr	168(ra) # 10440 <call_is_full>
   103a0:	0868                	addi	a0,sp,28
   103a2:	00000097          	auipc	ra,0x0
   103a6:	0ba080e7          	jalr	186(ra) # 1045c <call_len>
   103aa:	0868                	addi	a0,sp,28
   103ac:	00000097          	auipc	ra,0x0
   103b0:	0c8080e7          	jalr	200(ra) # 10474 <call_enqueue>
   103b4:	0868                	addi	a0,sp,28
   103b6:	00000097          	auipc	ra,0x0
   103ba:	0e2080e7          	jalr	226(ra) # 10498 <call_dequeue>
   103be:	0868                	addi	a0,sp,28
   103c0:	00000097          	auipc	ra,0x0
   103c4:	0f2080e7          	jalr	242(ra) # 104b2 <call_push>
   103c8:	0868                	addi	a0,sp,28
   103ca:	00000097          	auipc	ra,0x0
   103ce:	10a080e7          	jalr	266(ra) # 104d4 <call_remove_first_matching>
   103d2:	0868                	addi	a0,sp,28
   103d4:	00000097          	auipc	ra,0x0
   103d8:	dd8080e7          	jalr	-552(ra) # 101ac <<ring_buffer_smoketest::collections::ring_buffer::RingBuffer<T> as ring_buffer_smoketest::collections::queue::Queue<T>>::retain>
   103dc:	0868                	addi	a0,sp,28
   103de:	00000097          	auipc	ra,0x0
   103e2:	dc6080e7          	jalr	-570(ra) # 101a4 <<ring_buffer_smoketest::collections::ring_buffer::RingBuffer<T> as ring_buffer_smoketest::collections::queue::Queue<T>>::empty>
   103e6:	a001                	j	103e6 <main+0x8c>

000103e8 <_start>:
   103e8:	00000097          	auipc	ra,0x0
   103ec:	f72080e7          	jalr	-142(ra) # 1035a <main>

000103f0 <call_available_len>:
   103f0:	1141                	addi	sp,sp,-16
   103f2:	c606                	sw	ra,12(sp)
   103f4:	00000097          	auipc	ra,0x0
   103f8:	ef0080e7          	jalr	-272(ra) # 102e4 <ring_buffer_smoketest::collections::ring_buffer::RingBuffer<T>::available_len>
   103fc:	c42a                	sw	a0,8(sp)
   103fe:	0028                	addi	a0,sp,8
   10400:	00000317          	auipc	t1,0x0
   10404:	10430067          	jr	260(t1) # 10504 <OUTLINED_FUNCTION_0>

00010408 <call_as_slices>:
   10408:	1101                	addi	sp,sp,-32
   1040a:	ce06                	sw	ra,28(sp)
   1040c:	cc22                	sw	s0,24(sp)
   1040e:	85aa                	mv	a1,a0
   10410:	0028                	addi	a0,sp,8
   10412:	0020                	addi	s0,sp,8
   10414:	00000097          	auipc	ra,0x0
   10418:	f04080e7          	jalr	-252(ra) # 10318 <ring_buffer_smoketest::collections::ring_buffer::RingBuffer<T>::as_slices>
   1041c:	40f2                	lw	ra,28(sp)
   1041e:	4462                	lw	s0,24(sp)
   10420:	6105                	addi	sp,sp,32
   10422:	8082                	ret

00010424 <call_has_elements>:
   10424:	1141                	addi	sp,sp,-16
   10426:	c606                	sw	ra,12(sp)
   10428:	00000097          	auipc	ra,0x0
   1042c:	c8e080e7          	jalr	-882(ra) # 100b6 <<ring_buffer_smoketest::collections::ring_buffer::RingBuffer<T> as ring_buffer_smoketest::collections::queue::Queue<T>>::has_elements>
   10430:	00a105a3          	sb	a0,11(sp)
   10434:	00b10513          	addi	a0,sp,11
   10438:	00000317          	auipc	t1,0x0
   1043c:	0cc30067          	jr	204(t1) # 10504 <OUTLINED_FUNCTION_0>

00010440 <call_is_full>:
   10440:	1141                	addi	sp,sp,-16
   10442:	c606                	sw	ra,12(sp)
   10444:	00000097          	auipc	ra,0x0
   10448:	e86080e7          	jalr	-378(ra) # 102ca <<ring_buffer_smoketest::collections::ring_buffer::RingBuffer<T> as ring_buffer_smoketest::collections::queue::Queue<T>>::is_full>
   1044c:	00a105a3          	sb	a0,11(sp)
   10450:	00b10513          	addi	a0,sp,11
   10454:	00000317          	auipc	t1,0x0
   10458:	0b030067          	jr	176(t1) # 10504 <OUTLINED_FUNCTION_0>

0001045c <call_len>:
   1045c:	1141                	addi	sp,sp,-16
   1045e:	c606                	sw	ra,12(sp)
   10460:	00000097          	auipc	ra,0x0
   10464:	cb6080e7          	jalr	-842(ra) # 10116 <<ring_buffer_smoketest::collections::ring_buffer::RingBuffer<T> as ring_buffer_smoketest::collections::queue::Queue<T>>::len>
   10468:	c42a                	sw	a0,8(sp)
   1046a:	0028                	addi	a0,sp,8
   1046c:	00000317          	auipc	t1,0x0
   10470:	09830067          	jr	152(t1) # 10504 <OUTLINED_FUNCTION_0>

00010474 <call_enqueue>:
   10474:	1141                	addi	sp,sp,-16
   10476:	c606                	sw	ra,12(sp)
   10478:	4585                	li	a1,1
   1047a:	c22e                	sw	a1,4(sp)
   1047c:	004c                	addi	a1,sp,4
   1047e:	4592                	lw	a1,4(sp)
   10480:	00000097          	auipc	ra,0x0
   10484:	dfc080e7          	jalr	-516(ra) # 1027c <<ring_buffer_smoketest::collections::ring_buffer::RingBuffer<T> as ring_buffer_smoketest::collections::queue::Queue<T>>::enqueue>
   10488:	00a105a3          	sb	a0,11(sp)
   1048c:	00b10513          	addi	a0,sp,11
   10490:	00000317          	auipc	t1,0x0
   10494:	07430067          	jr	116(t1) # 10504 <OUTLINED_FUNCTION_0>

00010498 <call_dequeue>:
   10498:	1141                	addi	sp,sp,-16
   1049a:	c606                	sw	ra,12(sp)
   1049c:	00000097          	auipc	ra,0x0
   104a0:	d9a080e7          	jalr	-614(ra) # 10236 <<ring_buffer_smoketest::collections::ring_buffer::RingBuffer<T> as ring_buffer_smoketest::collections::queue::Queue<T>>::dequeue>
   104a4:	c22a                	sw	a0,4(sp)
   104a6:	c42e                	sw	a1,8(sp)
   104a8:	0048                	addi	a0,sp,4
   104aa:	00000317          	auipc	t1,0x0
   104ae:	05a30067          	jr	90(t1) # 10504 <OUTLINED_FUNCTION_0>

000104b2 <call_push>:
   104b2:	1141                	addi	sp,sp,-16
   104b4:	c606                	sw	ra,12(sp)
   104b6:	4589                	li	a1,2
   104b8:	c02e                	sw	a1,0(sp)
   104ba:	858a                	mv	a1,sp
   104bc:	4582                	lw	a1,0(sp)
   104be:	00000097          	auipc	ra,0x0
   104c2:	c76080e7          	jalr	-906(ra) # 10134 <<ring_buffer_smoketest::collections::ring_buffer::RingBuffer<T> as ring_buffer_smoketest::collections::queue::Queue<T>>::push>
   104c6:	c22a                	sw	a0,4(sp)
   104c8:	c42e                	sw	a1,8(sp)
   104ca:	0048                	addi	a0,sp,4
   104cc:	00000317          	auipc	t1,0x0
   104d0:	03830067          	jr	56(t1) # 10504 <OUTLINED_FUNCTION_0>

000104d4 <call_remove_first_matching>:
   104d4:	1101                	addi	sp,sp,-32
   104d6:	ce06                	sw	ra,28(sp)
   104d8:	cc22                	sw	s0,24(sp)
   104da:	ca26                	sw	s1,20(sp)
   104dc:	842a                	mv	s0,a0
   104de:	458d                	li	a1,3
   104e0:	448d                	li	s1,3
   104e2:	00000097          	auipc	ra,0x0
   104e6:	d9a080e7          	jalr	-614(ra) # 1027c <<ring_buffer_smoketest::collections::ring_buffer::RingBuffer<T> as ring_buffer_smoketest::collections::queue::Queue<T>>::enqueue>
   104ea:	8522                	mv	a0,s0
   104ec:	00000097          	auipc	ra,0x0
   104f0:	bd6080e7          	jalr	-1066(ra) # 100c2 <<ring_buffer_smoketest::collections::ring_buffer::RingBuffer<T> as ring_buffer_smoketest::collections::queue::Queue<T>>::remove_first_matching>
   104f4:	c62a                	sw	a0,12(sp)
   104f6:	c826                	sw	s1,16(sp)
   104f8:	0068                	addi	a0,sp,12
   104fa:	40f2                	lw	ra,28(sp)
   104fc:	4462                	lw	s0,24(sp)
   104fe:	44d2                	lw	s1,20(sp)
   10500:	6105                	addi	sp,sp,32
   10502:	8082                	ret

00010504 <OUTLINED_FUNCTION_0>:
   10504:	40b2                	lw	ra,12(sp)
   10506:	0141                	addi	sp,sp,16
   10508:	8082                	ret

0001050a <memset>:
   1050a:	433d                	li	t1,15
   1050c:	872a                	mv	a4,a0
   1050e:	02c37363          	bgeu	t1,a2,10534 <memset+0x2a>
   10512:	00f77793          	andi	a5,a4,15
   10516:	efbd                	bnez	a5,10594 <memset+0x8a>
   10518:	e5ad                	bnez	a1,10582 <memset+0x78>
   1051a:	ff067693          	andi	a3,a2,-16
   1051e:	8a3d                	andi	a2,a2,15
   10520:	96ba                	add	a3,a3,a4
   10522:	c30c                	sw	a1,0(a4)
   10524:	c34c                	sw	a1,4(a4)
   10526:	c70c                	sw	a1,8(a4)
   10528:	c74c                	sw	a1,12(a4)
   1052a:	0741                	addi	a4,a4,16
   1052c:	fed76be3          	bltu	a4,a3,10522 <memset+0x18>
   10530:	e211                	bnez	a2,10534 <memset+0x2a>
   10532:	8082                	ret
   10534:	40c306b3          	sub	a3,t1,a2
   10538:	068a                	slli	a3,a3,0x2
   1053a:	00000297          	auipc	t0,0x0
   1053e:	9696                	add	a3,a3,t0
   10540:	00a68067          	jr	10(a3)
   10544:	00b70723          	sb	a1,14(a4)
   10548:	00b706a3          	sb	a1,13(a4)
   1054c:	00b70623          	sb	a1,12(a4)
   10550:	00b705a3          	sb	a1,11(a4)
   10554:	00b70523          	sb	a1,10(a4)
   10558:	00b704a3          	sb	a1,9(a4)
   1055c:	00b70423          	sb	a1,8(a4)
   10560:	00b703a3          	sb	a1,7(a4)
   10564:	00b70323          	sb	a1,6(a4)
   10568:	00b702a3          	sb	a1,5(a4)
   1056c:	00b70223          	sb	a1,4(a4)
   10570:	00b701a3          	sb	a1,3(a4)
   10574:	00b70123          	sb	a1,2(a4)
   10578:	00b700a3          	sb	a1,1(a4)
   1057c:	00b70023          	sb	a1,0(a4)
   10580:	8082                	ret
   10582:	0ff5f593          	zext.b	a1,a1
   10586:	00859693          	slli	a3,a1,0x8
   1058a:	8dd5                	or	a1,a1,a3
   1058c:	01059693          	slli	a3,a1,0x10
   10590:	8dd5                	or	a1,a1,a3
   10592:	b761                	j	1051a <memset+0x10>
   10594:	00279693          	slli	a3,a5,0x2
   10598:	00000297          	auipc	t0,0x0
   1059c:	9696                	add	a3,a3,t0
   1059e:	8286                	mv	t0,ra
   105a0:	fa8680e7          	jalr	-88(a3)
   105a4:	8096                	mv	ra,t0
   105a6:	17c1                	addi	a5,a5,-16
   105a8:	8f1d                	sub	a4,a4,a5
   105aa:	963e                	add	a2,a2,a5
   105ac:	f8c374e3          	bgeu	t1,a2,10534 <memset+0x2a>
   105b0:	b7a5                	j	10518 <memset+0xe>

Disassembly of section .eh_frame:

000105b4 <__BSS_END__-0x12d8>:
   105b4:	0010                	.insn	2, 0x0010
   105b6:	0000                	unimp
   105b8:	0000                	unimp
   105ba:	0000                	unimp
   105bc:	7a01                	lui	s4,0xfffe0
   105be:	0052                	c.slli	zero,0x14
   105c0:	7c01                	lui	s8,0xfffe0
   105c2:	0101                	addi	sp,sp,0
   105c4:	00020c1b          	.insn	4, 0x00020c1b
   105c8:	0010                	.insn	2, 0x0010
   105ca:	0000                	unimp
   105cc:	0018                	.insn	2, 0x0018
   105ce:	0000                	unimp
   105d0:	fae6                	.insn	2, 0xfae6
   105d2:	ffff                	.insn	2, 0xffff
   105d4:	000c                	.insn	2, 0x000c
   105d6:	0000                	unimp
   105d8:	0000                	unimp
   105da:	0000                	unimp
   105dc:	0010                	.insn	2, 0x0010
   105de:	0000                	unimp
   105e0:	002c                	addi	a1,sp,8
   105e2:	0000                	unimp
   105e4:	fade                	.insn	2, 0xfade
   105e6:	ffff                	.insn	2, 0xffff
   105e8:	0054                	addi	a3,sp,4
   105ea:	0000                	unimp
   105ec:	0000                	unimp
   105ee:	0000                	unimp
   105f0:	0010                	.insn	2, 0x0010
   105f2:	0000                	unimp
   105f4:	0040                	addi	s0,sp,4
   105f6:	0000                	unimp
   105f8:	fb1e                	.insn	2, 0xfb1e
   105fa:	ffff                	.insn	2, 0xffff
   105fc:	001e                	c.slli	zero,0x7
   105fe:	0000                	unimp
   10600:	0000                	unimp
   10602:	0000                	unimp
   10604:	0028                	addi	a0,sp,8
   10606:	0000                	unimp
   10608:	0054                	addi	a3,sp,4
   1060a:	0000                	unimp
   1060c:	fb28                	.insn	2, 0xfb28
   1060e:	ffff                	.insn	2, 0xffff
   10610:	0070                	addi	a2,sp,12
   10612:	0000                	unimp
   10614:	4200                	lw	s0,0(a2)
   10616:	200e                	.insn	2, 0x200e
   10618:	814c                	.insn	2, 0x814c
   1061a:	8801                	andi	s0,s0,0
   1061c:	8902                	jr	s2
   1061e:	93049203          	lh	tp,-1744(s1)
   10622:	9405                	srai	s0,s0,0x21
   10624:	0206                	slli	tp,tp,0x1
   10626:	c15e                	sw	s7,128(sp)
   10628:	c9c8                	sw	a0,20(a1)
   1062a:	d3d2                	sw	s4,228(sp)
   1062c:	42d4                	lw	a3,4(a3)
   1062e:	000e                	c.slli	zero,0x3
   10630:	0010                	.insn	2, 0x0010
   10632:	0000                	unimp
   10634:	0080                	addi	s0,sp,64
   10636:	0000                	unimp
   10638:	fb6c                	.insn	2, 0xfb6c
   1063a:	ffff                	.insn	2, 0xffff
   1063c:	0008                	.insn	2, 0x0008
   1063e:	0000                	unimp
   10640:	0000                	unimp
   10642:	0000                	unimp
   10644:	0018                	.insn	2, 0x0018
   10646:	0000                	unimp
   10648:	0094                	addi	a3,sp,64
   1064a:	0000                	unimp
   1064c:	fb60                	.insn	2, 0xfb60
   1064e:	ffff                	.insn	2, 0xffff
   10650:	008a                	slli	ra,ra,0x2
   10652:	0000                	unimp
   10654:	4200                	lw	s0,0(a2)
   10656:	100e                	c.slli	zero,0x23
   10658:	020a                	slli	tp,tp,0x2
   1065a:	0e74                	addi	a3,sp,796
   1065c:	4200                	lw	s0,0(a2)
   1065e:	0024000b          	.insn	4, 0x0024000b
   10662:	0000                	unimp
   10664:	00b0                	addi	a2,sp,72
   10666:	0000                	unimp
   10668:	fbce                	.insn	2, 0xfbce
   1066a:	ffff                	.insn	2, 0xffff
   1066c:	0046                	c.slli	zero,0x11
   1066e:	0000                	unimp
   10670:	4200                	lw	s0,0(a2)
   10672:	100e                	c.slli	zero,0x23
   10674:	8148                	.insn	2, 0x8148
   10676:	8801                	andi	s0,s0,0
   10678:	8902                	jr	s2
   1067a:	78049203          	lh	tp,1920(s1)
   1067e:	c8c1                	beqz	s1,1070e <memset+0x204>
   10680:	d2c9                	beqz	a3,10602 <memset+0xf8>
   10682:	0e42                	slli	t3,t3,0x10
   10684:	0000                	unimp
   10686:	0000                	unimp
   10688:	0024                	addi	s1,sp,8
   1068a:	0000                	unimp
   1068c:	00d8                	addi	a4,sp,68
   1068e:	0000                	unimp
   10690:	fbec                	.insn	2, 0xfbec
   10692:	ffff                	.insn	2, 0xffff
   10694:	004e                	c.slli	zero,0x13
   10696:	0000                	unimp
   10698:	4200                	lw	s0,0(a2)
   1069a:	200e                	.insn	2, 0x200e
   1069c:	814a                	mv	sp,s2
   1069e:	8801                	andi	s0,s0,0
   106a0:	8902                	jr	s2
   106a2:	93049203          	lh	tp,-1744(s1)
   106a6:	7e05                	lui	t3,0xfffe1
   106a8:	c8c1                	beqz	s1,10738 <memset+0x22e>
   106aa:	d2c9                	beqz	a3,1062c <memset+0x122>
   106ac:	000e42d3          	.insn	4, 0x000e42d3
   106b0:	0010                	.insn	2, 0x0010
   106b2:	0000                	unimp
   106b4:	0100                	addi	s0,sp,128
   106b6:	0000                	unimp
   106b8:	fc12                	.insn	2, 0xfc12
   106ba:	ffff                	.insn	2, 0xffff
   106bc:	001a                	c.slli	zero,0x6
   106be:	0000                	unimp
   106c0:	0000                	unimp
   106c2:	0000                	unimp
   106c4:	001c                	.insn	2, 0x001c
   106c6:	0000                	unimp
   106c8:	0114                	addi	a3,sp,128
   106ca:	0000                	unimp
   106cc:	fc18                	.insn	2, 0xfc18
   106ce:	ffff                	.insn	2, 0xffff
   106d0:	0026                	c.slli	zero,0x9
   106d2:	0000                	unimp
   106d4:	4200                	lw	s0,0(a2)
   106d6:	100e                	c.slli	zero,0x23
   106d8:	8144                	.insn	2, 0x8144
   106da:	8801                	andi	s0,s0,0
   106dc:	5c02                	lw	s8,32(sp)
   106de:	c8c1                	beqz	s1,1076e <memset+0x264>
   106e0:	0e42                	slli	t3,t3,0x10
   106e2:	0000                	unimp
   106e4:	0010                	.insn	2, 0x0010
   106e6:	0000                	unimp
   106e8:	0134                	addi	a3,sp,136
   106ea:	0000                	unimp
   106ec:	fc1e                	.insn	2, 0xfc1e
   106ee:	ffff                	.insn	2, 0xffff
   106f0:	000e                	c.slli	zero,0x3
   106f2:	0000                	unimp
   106f4:	0000                	unimp
   106f6:	0000                	unimp
   106f8:	0010                	.insn	2, 0x0010
   106fa:	0000                	unimp
   106fc:	0148                	addi	a0,sp,132
   106fe:	0000                	unimp
   10700:	fc18                	.insn	2, 0xfc18
   10702:	ffff                	.insn	2, 0xffff
   10704:	0042                	c.slli	zero,0x10
   10706:	0000                	unimp
   10708:	0000                	unimp
   1070a:	0000                	unimp
   1070c:	0014                	.insn	2, 0x0014
   1070e:	0000                	unimp
   10710:	015c                	addi	a5,sp,132
   10712:	0000                	unimp
   10714:	fc46                	.insn	2, 0xfc46
   10716:	ffff                	.insn	2, 0xffff
   10718:	008e                	slli	ra,ra,0x3
   1071a:	0000                	unimp
   1071c:	4200                	lw	s0,0(a2)
   1071e:	300e                	.insn	2, 0x300e
   10720:	8142                	mv	sp,a6
   10722:	0001                	nop
   10724:	0010                	.insn	2, 0x0010
   10726:	0000                	unimp
   10728:	0174                	addi	a3,sp,140
   1072a:	0000                	unimp
   1072c:	fcbc                	.insn	2, 0xfcbc
   1072e:	ffff                	.insn	2, 0xffff
   10730:	0008                	.insn	2, 0x0008
   10732:	0000                	unimp
   10734:	0000                	unimp
   10736:	0000                	unimp
   10738:	0014                	.insn	2, 0x0014
   1073a:	0000                	unimp
   1073c:	0188                	addi	a0,sp,192
   1073e:	0000                	unimp
   10740:	fcb0                	.insn	2, 0xfcb0
   10742:	ffff                	.insn	2, 0xffff
   10744:	0018                	.insn	2, 0x0018
   10746:	0000                	unimp
   10748:	4200                	lw	s0,0(a2)
   1074a:	100e                	c.slli	zero,0x23
   1074c:	8142                	mv	sp,a6
   1074e:	0001                	nop
   10750:	001c                	.insn	2, 0x001c
   10752:	0000                	unimp
   10754:	01a0                	addi	s0,sp,200
   10756:	0000                	unimp
   10758:	fcb0                	.insn	2, 0xfcb0
   1075a:	ffff                	.insn	2, 0xffff
   1075c:	001c                	.insn	2, 0x001c
   1075e:	0000                	unimp
   10760:	4200                	lw	s0,0(a2)
   10762:	200e                	.insn	2, 0x200e
   10764:	8144                	.insn	2, 0x8144
   10766:	8801                	andi	s0,s0,0
   10768:	5202                	lw	tp,32(sp)
   1076a:	c8c1                	beqz	s1,107fa <memset+0x2f0>
   1076c:	0e42                	slli	t3,t3,0x10
   1076e:	0000                	unimp
   10770:	0014                	.insn	2, 0x0014
   10772:	0000                	unimp
   10774:	01c0                	addi	s0,sp,196
   10776:	0000                	unimp
   10778:	fcac                	.insn	2, 0xfcac
   1077a:	ffff                	.insn	2, 0xffff
   1077c:	001c                	.insn	2, 0x001c
   1077e:	0000                	unimp
   10780:	4200                	lw	s0,0(a2)
   10782:	100e                	c.slli	zero,0x23
   10784:	8142                	mv	sp,a6
   10786:	0001                	nop
   10788:	0014                	.insn	2, 0x0014
   1078a:	0000                	unimp
   1078c:	01d8                	addi	a4,sp,196
   1078e:	0000                	unimp
   10790:	fcb0                	.insn	2, 0xfcb0
   10792:	ffff                	.insn	2, 0xffff
   10794:	001c                	.insn	2, 0x001c
   10796:	0000                	unimp
   10798:	4200                	lw	s0,0(a2)
   1079a:	100e                	c.slli	zero,0x23
   1079c:	8142                	mv	sp,a6
   1079e:	0001                	nop
   107a0:	0014                	.insn	2, 0x0014
   107a2:	0000                	unimp
   107a4:	01f0                	addi	a2,sp,204
   107a6:	0000                	unimp
   107a8:	fcb4                	.insn	2, 0xfcb4
   107aa:	ffff                	.insn	2, 0xffff
   107ac:	0018                	.insn	2, 0x0018
   107ae:	0000                	unimp
   107b0:	4200                	lw	s0,0(a2)
   107b2:	100e                	c.slli	zero,0x23
   107b4:	8142                	mv	sp,a6
   107b6:	0001                	nop
   107b8:	0014                	.insn	2, 0x0014
   107ba:	0000                	unimp
   107bc:	0208                	addi	a0,sp,256
   107be:	0000                	unimp
   107c0:	fcb4                	.insn	2, 0xfcb4
   107c2:	ffff                	.insn	2, 0xffff
   107c4:	0024                	addi	s1,sp,8
   107c6:	0000                	unimp
   107c8:	4200                	lw	s0,0(a2)
   107ca:	100e                	c.slli	zero,0x23
   107cc:	8142                	mv	sp,a6
   107ce:	0001                	nop
   107d0:	0014                	.insn	2, 0x0014
   107d2:	0000                	unimp
   107d4:	0220                	addi	s0,sp,264
   107d6:	0000                	unimp
   107d8:	fcc0                	.insn	2, 0xfcc0
   107da:	ffff                	.insn	2, 0xffff
   107dc:	001a                	c.slli	zero,0x6
   107de:	0000                	unimp
   107e0:	4200                	lw	s0,0(a2)
   107e2:	100e                	c.slli	zero,0x23
   107e4:	8142                	mv	sp,a6
   107e6:	0001                	nop
   107e8:	0014                	.insn	2, 0x0014
   107ea:	0000                	unimp
   107ec:	0238                	addi	a4,sp,264
   107ee:	0000                	unimp
   107f0:	fcc2                	.insn	2, 0xfcc2
   107f2:	ffff                	.insn	2, 0xffff
   107f4:	0022                	c.slli	zero,0x8
   107f6:	0000                	unimp
   107f8:	4200                	lw	s0,0(a2)
   107fa:	100e                	c.slli	zero,0x23
   107fc:	8142                	mv	sp,a6
   107fe:	0001                	nop
   10800:	0020                	addi	s0,sp,8
   10802:	0000                	unimp
   10804:	0250                	addi	a2,sp,260
   10806:	0000                	unimp
   10808:	fccc                	.insn	2, 0xfccc
   1080a:	ffff                	.insn	2, 0xffff
   1080c:	0030                	addi	a2,sp,8
   1080e:	0000                	unimp
   10810:	4200                	lw	s0,0(a2)
   10812:	200e                	.insn	2, 0x200e
   10814:	8146                	mv	sp,a7
   10816:	8801                	andi	s0,s0,0
   10818:	8902                	jr	s2
   1081a:	c8c16403          	.insn	4, 0xc8c16403
   1081e:	42c9                	li	t0,18
   10820:	000e                	c.slli	zero,0x3
   10822:	0000                	unimp
   10824:	001c                	.insn	2, 0x001c
   10826:	0000                	unimp
   10828:	0274                	addi	a3,sp,268
   1082a:	0000                	unimp
   1082c:	f868                	.insn	2, 0xf868
   1082e:	ffff                	.insn	2, 0xffff
   10830:	0010                	.insn	2, 0x0010
   10832:	0000                	unimp
   10834:	4200                	lw	s0,0(a2)
   10836:	100e                	c.slli	zero,0x23
   10838:	8144                	.insn	2, 0x8144
   1083a:	8801                	andi	s0,s0,0
   1083c:	4202                	lw	tp,0(sp)
   1083e:	080c                	addi	a1,sp,16
   10840:	0000                	unimp
   10842:	0000                	unimp
   10844:	0010                	.insn	2, 0x0010
   10846:	0000                	unimp
   10848:	0294                	addi	a3,sp,320
   1084a:	0000                	unimp
   1084c:	f858                	.insn	2, 0xf858
   1084e:	ffff                	.insn	2, 0xffff
   10850:	0002                	c.slli64	zero
   10852:	0000                	unimp
   10854:	0000                	unimp
   10856:	0000                	unimp
   10858:	001c                	.insn	2, 0x001c
   1085a:	0000                	unimp
   1085c:	02a8                	addi	a0,sp,328
   1085e:	0000                	unimp
   10860:	f846                	.insn	2, 0xf846
   10862:	ffff                	.insn	2, 0xffff
   10864:	0010                	.insn	2, 0x0010
   10866:	0000                	unimp
   10868:	4200                	lw	s0,0(a2)
   1086a:	100e                	c.slli	zero,0x23
   1086c:	8144                	.insn	2, 0x8144
   1086e:	8801                	andi	s0,s0,0
   10870:	4202                	lw	tp,0(sp)
   10872:	080c                	addi	a1,sp,16
   10874:	0000                	unimp
   10876:	0000                	unimp
   10878:	0010                	.insn	2, 0x0010
   1087a:	0000                	unimp
   1087c:	02c8                	addi	a0,sp,324
   1087e:	0000                	unimp
   10880:	fc84                	.insn	2, 0xfc84
   10882:	ffff                	.insn	2, 0xffff
   10884:	0006                	c.slli	zero,0x1
   10886:	0000                	unimp
   10888:	0000                	unimp
	...

Disassembly of section .comment:

00000000 <.comment>:
   0:	7572                	.insn	2, 0x7572
   2:	20637473          	.insn	4, 0x20637473
   6:	6576                	.insn	2, 0x6576
   8:	7372                	.insn	2, 0x7372
   a:	6f69                	lui	t5,0x1a
   c:	206e                	.insn	2, 0x206e
   e:	2e31                	jal	32a <core::panicking::panic_bounds_check-0xfd6a>
  10:	3039                	jal	fffff81e <__global_pointer$+0xfffed792>
  12:	302e                	.insn	2, 0x302e
  14:	2820                	.insn	2, 0x2820
  16:	3131                	jal	fffffc22 <__global_pointer$+0xfffedb96>
  18:	3935                	jal	fffffc54 <__global_pointer$+0xfffedbc8>
  1a:	3765                	jal	ffffffc2 <__global_pointer$+0xfffedf36>
  1c:	6338                	.insn	2, 0x6338
  1e:	2034                	.insn	2, 0x2034
  20:	3032                	.insn	2, 0x3032
  22:	3532                	.insn	2, 0x3532
  24:	302d                	jal	fffff84e <__global_pointer$+0xfffed7c2>
  26:	2d39                	jal	644 <core::panicking::panic_bounds_check-0xfa50>
  28:	3431                	jal	fffffa34 <__global_pointer$+0xfffed9a8>
  2a:	0029                	c.nop	10

Disassembly of section .riscv.attributes:

00000000 <.riscv.attributes>:
   0:	4641                	li	a2,16
   2:	0000                	unimp
   4:	7200                	.insn	2, 0x7200
   6:	7369                	lui	t1,0xffffa
   8:	01007663          	bgeu	zero,a6,14 <core::panicking::panic_bounds_check-0x10080>
   c:	003c                	addi	a5,sp,8
   e:	0000                	unimp
  10:	1004                	addi	s1,sp,32
  12:	7205                	lui	tp,0xfffe1
  14:	3376                	.insn	2, 0x3376
  16:	6932                	.insn	2, 0x6932
  18:	7032                	.insn	2, 0x7032
  1a:	5f31                	li	t5,-20
  1c:	326d                	jal	fffff9c6 <__global_pointer$+0xfffed93a>
  1e:	3070                	.insn	2, 0x3070
  20:	615f 7032 5f31      	.insn	6, 0x5f317032615f
  26:	30703263          	.insn	4, 0x30703263
  2a:	7a5f 6d6d 6c75      	.insn	6, 0x6c756d6d7a5f
  30:	7031                	c.lui	zero,0xfffec
  32:	5f30                	lw	a2,120(a4)
  34:	617a                	.insn	2, 0x617a
  36:	6d61                	lui	s10,0x18
  38:	3070316f          	jal	sp,3b3e <core::panicking::panic_bounds_check-0xc556>
  3c:	7a5f 6c61 7372      	.insn	6, 0x73726c617a5f
  42:	30703163          	.insn	4, 0x30703163
	...

Disassembly of section .debug_aranges:

00000000 <.debug_aranges>:
   0:	00fc                	addi	a5,sp,76
   2:	0000                	unimp
   4:	0002                	c.slli64	zero
   6:	0000                	unimp
   8:	0000                	unimp
   a:	0004                	.insn	2, 0x0004
   c:	ffff                	.insn	2, 0xffff
   e:	ffff                	.insn	2, 0xffff
  10:	0000                	unimp
  12:	0000                	unimp
  14:	002c                	addi	a1,sp,8
  16:	0000                	unimp
  18:	00b6                	slli	ra,ra,0xd
  1a:	0001                	nop
  1c:	000c                	.insn	2, 0x000c
  1e:	0000                	unimp
  20:	00c2                	slli	ra,ra,0x10
  22:	0001                	nop
  24:	0054                	addi	a3,sp,4
  26:	0000                	unimp
  28:	0116                	slli	sp,sp,0x5
  2a:	0001                	nop
  2c:	001e                	c.slli	zero,0x7
  2e:	0000                	unimp
  30:	0134                	addi	a3,sp,136
  32:	0001                	nop
  34:	0070                	addi	a2,sp,12
  36:	0000                	unimp
  38:	01a4                	addi	s1,sp,200
  3a:	0001                	nop
  3c:	0008                	.insn	2, 0x0008
  3e:	0000                	unimp
  40:	01ac                	addi	a1,sp,200
  42:	0001                	nop
  44:	008a                	slli	ra,ra,0x2
  46:	0000                	unimp
  48:	0236                	slli	tp,tp,0xd
  4a:	0001                	nop
  4c:	0046                	c.slli	zero,0x11
  4e:	0000                	unimp
  50:	027c                	addi	a5,sp,268
  52:	0001                	nop
  54:	004e                	c.slli	zero,0x13
  56:	0000                	unimp
  58:	02ca                	slli	t0,t0,0x12
  5a:	0001                	nop
  5c:	001a                	c.slli	zero,0x6
  5e:	0000                	unimp
  60:	02e4                	addi	s1,sp,332
  62:	0001                	nop
  64:	0026                	c.slli	zero,0x9
  66:	0000                	unimp
  68:	030a                	slli	t1,t1,0x2
  6a:	0001                	nop
  6c:	000e                	c.slli	zero,0x3
  6e:	0000                	unimp
  70:	0318                	addi	a4,sp,384
  72:	0001                	nop
  74:	0042                	c.slli	zero,0x10
  76:	0000                	unimp
  78:	0000                	unimp
  7a:	0000                	unimp
  7c:	0004                	.insn	2, 0x0004
  7e:	0000                	unimp
  80:	035a                	slli	t1,t1,0x16
  82:	0001                	nop
  84:	008e                	slli	ra,ra,0x3
  86:	0000                	unimp
  88:	03e8                	addi	a0,sp,460
  8a:	0001                	nop
  8c:	0008                	.insn	2, 0x0008
  8e:	0000                	unimp
  90:	0000                	unimp
  92:	0000                	unimp
  94:	0002                	c.slli64	zero
  96:	0000                	unimp
  98:	03f0                	addi	a2,sp,460
  9a:	0001                	nop
  9c:	0018                	.insn	2, 0x0018
  9e:	0000                	unimp
  a0:	0408                	addi	a0,sp,512
  a2:	0001                	nop
  a4:	001c                	.insn	2, 0x001c
  a6:	0000                	unimp
  a8:	0424                	addi	s1,sp,520
  aa:	0001                	nop
  ac:	001c                	.insn	2, 0x001c
  ae:	0000                	unimp
  b0:	0440                	addi	s0,sp,516
  b2:	0001                	nop
  b4:	001c                	.insn	2, 0x001c
  b6:	0000                	unimp
  b8:	045c                	addi	a5,sp,516
  ba:	0001                	nop
  bc:	0018                	.insn	2, 0x0018
  be:	0000                	unimp
  c0:	0474                	addi	a3,sp,524
  c2:	0001                	nop
  c4:	0024                	addi	s1,sp,8
  c6:	0000                	unimp
  c8:	0498                	addi	a4,sp,576
  ca:	0001                	nop
  cc:	001a                	c.slli	zero,0x6
  ce:	0000                	unimp
  d0:	04b2                	slli	s1,s1,0xc
  d2:	0001                	nop
  d4:	0022                	c.slli	zero,0x8
  d6:	0000                	unimp
  d8:	04d4                	addi	a3,sp,580
  da:	0001                	nop
  dc:	0030                	addi	a2,sp,8
  de:	0000                	unimp
  e0:	0000                	unimp
  e2:	0000                	unimp
  e4:	0008                	.insn	2, 0x0008
  e6:	0000                	unimp
  e8:	0000                	unimp
  ea:	0000                	unimp
  ec:	0008                	.insn	2, 0x0008
  ee:	0000                	unimp
  f0:	0504                	addi	s1,sp,640
  f2:	0001                	nop
  f4:	0006                	c.slli	zero,0x1
	...
  fe:	0000                	unimp
 100:	002c                	addi	a1,sp,8
 102:	0000                	unimp
 104:	0002                	c.slli64	zero
 106:	1c5d                	addi	s8,s8,-9 # fffdfff7 <__global_pointer$+0xfffcdf6b>
 108:	0000                	unimp
 10a:	0004                	.insn	2, 0x0004
 10c:	ffff                	.insn	2, 0xffff
 10e:	ffff                	.insn	2, 0xffff
 110:	0094                	addi	a3,sp,64
 112:	0001                	nop
 114:	0010                	.insn	2, 0x0010
 116:	0000                	unimp
 118:	00a4                	addi	s1,sp,72
 11a:	0001                	nop
 11c:	0002                	c.slli64	zero
 11e:	0000                	unimp
 120:	00a6                	slli	ra,ra,0x9
 122:	0001                	nop
 124:	0010                	.insn	2, 0x0010
	...

Disassembly of section .debug_info:

00000000 <.debug_info>:
       0:	1c09                	addi	s8,s8,-30
       2:	0000                	unimp
       4:	0004                	.insn	2, 0x0004
       6:	0000                	unimp
       8:	0000                	unimp
       a:	0104                	addi	s1,sp,128
       c:	0000                	unimp
       e:	0000                	unimp
      10:	001c                	.insn	2, 0x001c
      12:	0039                	c.nop	14
      14:	0000                	unimp
      16:	0000                	unimp
      18:	0000                	unimp
      1a:	0074                	addi	a3,sp,12
      1c:	0000                	unimp
      1e:	0000                	unimp
      20:	0000                	unimp
      22:	0280                	addi	s0,sp,320
      24:	0000                	unimp
      26:	8902                	jr	s2
      28:	0000                	unimp
      2a:	0300                	addi	s0,sp,384
      2c:	009f 0000 0dc9      	.insn	6, 0x0dc90000009f
      32:	0000                	unimp
      34:	6601                	.insn	2, 0x6601
      36:	0504                	addi	s1,sp,640
      38:	00000003          	lb	zero,0(zero) # 0 <core::panicking::panic_bounds_check-0x10094>
      3c:	0200                	addi	s0,sp,256
      3e:	00aa                	slli	ra,ra,0xa
      40:	0000                	unimp
      42:	b602                	.insn	2, 0xb602
      44:	0000                	unimp
      46:	0400                	addi	s0,sp,512
      48:	0125                	addi	sp,sp,9
      4a:	0000                	unimp
      4c:	0110                	addi	a2,sp,128
      4e:	0504                	addi	s1,sp,640
      50:	00000df7          	.insn	4, 0x0df7
      54:	00c2                	slli	ra,ra,0x10
      56:	0000                	unimp
      58:	6c06                	.insn	2, 0x6c06
      5a:	0002                	c.slli64	zero
      5c:	fe00                	.insn	2, 0xfe00
      5e:	000d                	c.nop	3
      60:	0400                	addi	s0,sp,512
      62:	0300                	addi	s0,sp,384
      64:	e506                	.insn	2, 0xe506
      66:	0000                	unimp
      68:	2500                	.insn	2, 0x2500
      6a:	000e                	c.slli	zero,0x3
      6c:	0400                	addi	s0,sp,512
      6e:	0308                	addi	a0,sp,384
      70:	ea06                	.insn	2, 0xea06
      72:	0000                	unimp
      74:	2500                	.insn	2, 0x2500
      76:	000e                	c.slli	zero,0x3
      78:	0400                	addi	s0,sp,512
      7a:	030c                	addi	a1,sp,384
      7c:	00050307          	.insn	4, 0x00050307
      80:	7000                	.insn	2, 0x7000
      82:	0005                	c.nop	1
      84:	0200                	addi	s0,sp,256
      86:	253e                	.insn	2, 0x253e
      88:	000e                	c.slli	zero,0x3
      8a:	0500                	addi	s0,sp,640
      8c:	00000df7          	.insn	4, 0x0df7
      90:	00c2                	slli	ra,ra,0x10
      92:	0000                	unimp
      94:	cb08                	sw	a0,16(a4)
      96:	0016                	c.slli	zero,0x5
      98:	0000                	unimp
      9a:	0005c507          	.insn	4, 0x0005c507
      9e:	2700                	.insn	2, 0x2700
      a0:	0006                	c.slli	zero,0x1
      a2:	0200                	addi	s0,sp,256
      a4:	4734                	lw	a3,72(a4)
      a6:	0000                	unimp
      a8:	0500                	addi	s0,sp,640
      aa:	00000df7          	.insn	4, 0x0df7
      ae:	00c2                	slli	ra,ra,0x10
      b0:	0000                	unimp
      b2:	fe08                	.insn	2, 0xfe08
      b4:	000d                	c.nop	3
      b6:	0000                	unimp
      b8:	000a8707          	.insn	4, 0x000a8707
      bc:	ef00                	.insn	2, 0xef00
      be:	000a                	c.slli	zero,0x2
      c0:	0200                	addi	s0,sp,256
      c2:	0017f24f          	.insn	4, 0x0017f24f
      c6:	0500                	addi	s0,sp,640
      c8:	00000df7          	.insn	4, 0x0df7
      cc:	00c2                	slli	ra,ra,0x10
      ce:	0000                	unimp
      d0:	cb08                	sw	a0,16(a4)
      d2:	0016                	c.slli	zero,0x5
      d4:	0000                	unimp
      d6:	0200                	addi	s0,sp,256
      d8:	0271                	addi	tp,tp,28 # fffe101c <__global_pointer$+0xfffcef90>
      da:	0000                	unimp
      dc:	b609                	j	fffffbde <__global_pointer$+0xfffedb52>
      de:	0100                	addi	s0,sp,128
      e0:	0c00                	addi	s0,sp,528
      e2:	0000                	unimp
      e4:	0100                	addi	s0,sp,128
      e6:	0d52                	slli	s10,s10,0x14
      e8:	c8000017          	auipc	zero,0xc8000
      ec:	02000017          	auipc	zero,0x2000
      f0:	3366                	.insn	2, 0x3366
      f2:	000e                	c.slli	zero,0x3
      f4:	0a00                	addi	s0,sp,272
      f6:	0000                	unimp
      f8:	0000                	unimp
      fa:	04fa                	slli	s1,s1,0x1e
      fc:	0000                	unimp
      fe:	6602                	.insn	2, 0x6602
     100:	000016cb          	.insn	4, 0x16cb
     104:	0100b60b          	.insn	4, 0x0100b60b
     108:	0a00                	addi	s0,sp,272
     10a:	0000                	unimp
     10c:	0c00                	addi	s0,sp,528
     10e:	1fa8                	addi	a0,sp,1016
     110:	0000                	unimp
     112:	0204                	addi	s1,sp,256
     114:	2510                	.insn	2, 0x2510
     116:	000e                	c.slli	zero,0x3
     118:	0b00                	addi	s0,sp,400
     11a:	00b8                	addi	a4,sp,72
     11c:	0001                	nop
     11e:	0008                	.insn	2, 0x0008
     120:	0000                	unimp
     122:	010d                	addi	sp,sp,3
     124:	0000e55b          	.insn	4, 0xe55b
     128:	0400                	addi	s0,sp,512
     12a:	1102                	slli	sp,sp,0x20
     12c:	0e25                	addi	t3,t3,9 # fffe1009 <__global_pointer$+0xfffcef7d>
     12e:	0000                	unimp
     130:	0100ba0b          	.insn	4, 0x0100ba0b
     134:	0600                	addi	s0,sp,768
     136:	0000                	unimp
     138:	0e00                	addi	s0,sp,784
     13a:	0000001b          	.insn	4, 0x001b
     13e:	00ea                	slli	ra,ra,0x1a
     140:	0000                	unimp
     142:	0204                	addi	s1,sp,256
     144:	2512                	.insn	2, 0x2512
     146:	000e                	c.slli	zero,0x3
     148:	0000                	unimp
     14a:	0000                	unimp
     14c:	f705                	bnez	a4,74 <core::panicking::panic_bounds_check-0x10020>
     14e:	000d                	c.nop	3
     150:	c200                	sw	s0,0(a2)
     152:	0000                	unimp
     154:	0000                	unimp
     156:	0100c20f          	.insn	4, 0x0100c20f
     15a:	5400                	lw	s0,40(s0)
     15c:	0000                	unimp
     15e:	0100                	addi	s0,sp,128
     160:	dc52                	sw	s4,56(sp)
     162:	a0000017          	auipc	zero,0xa0000
     166:	0018                	.insn	2, 0x0018
     168:	0200                	addi	s0,sp,256
     16a:	03d0                	addi	a2,sp,452
     16c:	10b9                	addi	ra,ra,-18
     16e:	0000                	unimp
     170:	360a                	.insn	2, 0x360a
     172:	0000                	unimp
     174:	fa00                	.insn	2, 0xfa00
     176:	0004                	.insn	2, 0x0004
     178:	0200                	addi	s0,sp,256
     17a:	ead0                	.insn	2, 0xead0
     17c:	000d                	c.nop	3
     17e:	1000                	addi	s0,sp,32
     180:	04fd                	addi	s1,s1,31
     182:	0000                	unimp
     184:	d002                	sw	zero,32(sp)
     186:	06c1                	addi	a3,a3,16
     188:	0000                	unimp
     18a:	0011                	c.nop	4
     18c:	0000                	unimp
     18e:	0e00                	addi	s0,sp,784
     190:	005c                	addi	a5,sp,4
     192:	0000                	unimp
     194:	1fa8                	addi	a0,sp,1016
     196:	0000                	unimp
     198:	0204                	addi	s1,sp,256
     19a:	2510                	.insn	2, 0x2510
     19c:	000e                	c.slli	zero,0x3
     19e:	1100                	addi	s0,sp,160
     1a0:	0018                	.insn	2, 0x0018
     1a2:	0000                	unimp
     1a4:	820e                	mv	tp,gp
     1a6:	0000                	unimp
     1a8:	e500                	.insn	2, 0xe500
     1aa:	0000                	unimp
     1ac:	0400                	addi	s0,sp,512
     1ae:	1102                	slli	sp,sp,0x20
     1b0:	0e25                	addi	t3,t3,9
     1b2:	0000                	unimp
     1b4:	3011                	jal	fffff9b8 <__global_pointer$+0xfffed92c>
     1b6:	0000                	unimp
     1b8:	0e00                	addi	s0,sp,784
     1ba:	009d                	addi	ra,ra,7
     1bc:	0000                	unimp
     1be:	00ea                	slli	ra,ra,0x1a
     1c0:	0000                	unimp
     1c2:	0204                	addi	s1,sp,256
     1c4:	2512                	.insn	2, 0x2512
     1c6:	000e                	c.slli	zero,0x3
     1c8:	1100                	addi	s0,sp,160
     1ca:	0030                	addi	a2,sp,8
     1cc:	0000                	unimp
     1ce:	c30e                	sw	gp,132(sp)
     1d0:	0000                	unimp
     1d2:	8400                	.insn	2, 0x8400
     1d4:	000c                	.insn	2, 0x000c
     1d6:	0400                	addi	s0,sp,512
     1d8:	d502                	sw	zero,168(sp)
     1da:	0e25                	addi	t3,t3,9
     1dc:	0000                	unimp
     1de:	3011                	jal	fffff9e2 <__global_pointer$+0xfffed956>
     1e0:	0000                	unimp
     1e2:	0e00                	addi	s0,sp,784
     1e4:	00e9                	addi	ra,ra,26
     1e6:	0000                	unimp
     1e8:	1fb6                	slli	t6,t6,0x2d
     1ea:	0000                	unimp
     1ec:	0204                	addi	s1,sp,256
     1ee:	25d6                	.insn	2, 0x25d6
     1f0:	000e                	c.slli	zero,0x3
     1f2:	1200                	addi	s0,sp,288
     1f4:	0694                	addi	a3,sp,832
     1f6:	0000                	unimp
     1f8:	00d8                	addi	a4,sp,68
     1fa:	0001                	nop
     1fc:	0002                	c.slli64	zero
     1fe:	0000                	unimp
     200:	d802                	sw	zero,48(sp)
     202:	1310                	addi	a2,sp,416
     204:	5e01                	li	t3,-32
     206:	000006ab          	.insn	4, 0x06ab
     20a:	0b00                	addi	s0,sp,400
     20c:	00f4                	addi	a3,sp,76
     20e:	0001                	nop
     210:	0020                	addi	s0,sp,8
     212:	0000                	unimp
     214:	bb0c                	.insn	2, 0xbb0c
     216:	001f 0400 da02      	.insn	6, 0xda020400001f
     21c:	00000df7          	.insn	4, 0x0df7
     220:	4811                	li	a6,4
     222:	0000                	unimp
     224:	0e00                	addi	s0,sp,784
     226:	0130                	addi	a2,sp,136
     228:	0000                	unimp
     22a:	1fb1                	addi	t6,t6,-20
     22c:	0000                	unimp
     22e:	0204                	addi	s1,sp,256
     230:	25dc                	.insn	2, 0x25dc
     232:	000e                	c.slli	zero,0x3
	...
     23c:	f705                	bnez	a4,164 <core::panicking::panic_bounds_check-0xff30>
     23e:	000d                	c.nop	3
     240:	c200                	sw	s0,0(a2)
     242:	0000                	unimp
     244:	0500                	addi	s0,sp,640
     246:	06c1                	addi	a3,a3,16
     248:	0000                	unimp
     24a:	17da                	slli	a5,a5,0x36
     24c:	0000                	unimp
     24e:	0900                	addi	s0,sp,144
     250:	0116                	slli	sp,sp,0x5
     252:	0001                	nop
     254:	001e                	c.slli	zero,0x7
     256:	0000                	unimp
     258:	5201                	li	tp,-32
     25a:	190c                	addi	a1,sp,176
     25c:	0000                	unimp
     25e:	057a                	slli	a0,a0,0x1e
     260:	0000                	unimp
     262:	7402                	.insn	2, 0x7402
     264:	0e25                	addi	t3,t3,9
     266:	0000                	unimp
     268:	560a                	lw	a2,160(sp)
     26a:	0001                	nop
     26c:	fa00                	.insn	2, 0xfa00
     26e:	0004                	.insn	2, 0x0004
     270:	0200                	addi	s0,sp,256
     272:	cb74                	sw	a3,84(a4)
     274:	0016                	c.slli	zero,0x5
     276:	1100                	addi	s0,sp,160
     278:	0060                	addi	s0,sp,12
     27a:	0000                	unimp
     27c:	870e                	mv	a4,gp
     27e:	0001                	nop
     280:	a800                	.insn	2, 0xa800
     282:	001f 0400 1002      	.insn	6, 0x10020400001f
     288:	0e25                	addi	t3,t3,9
     28a:	0000                	unimp
     28c:	7811                	lui	a6,0xfffe4
     28e:	0000                	unimp
     290:	0d00                	addi	s0,sp,656
     292:	5b01                	li	s6,-32
     294:	00e5                	addi	ra,ra,25
     296:	0000                	unimp
     298:	0204                	addi	s1,sp,256
     29a:	2511                	jal	89e <core::panicking::panic_bounds_check-0xf7f6>
     29c:	000e                	c.slli	zero,0x3
     29e:	1100                	addi	s0,sp,160
     2a0:	0090                	addi	a2,sp,64
     2a2:	0000                	unimp
     2a4:	010d                	addi	sp,sp,3
     2a6:	ea5c                	.insn	2, 0xea5c
     2a8:	0000                	unimp
     2aa:	0400                	addi	s0,sp,512
     2ac:	1202                	slli	tp,tp,0x20
     2ae:	0e25                	addi	t3,t3,9
     2b0:	0000                	unimp
     2b2:	0000                	unimp
     2b4:	0500                	addi	s0,sp,640
     2b6:	00000df7          	.insn	4, 0x0df7
     2ba:	00c2                	slli	ra,ra,0x10
     2bc:	0000                	unimp
     2be:	0900                	addi	s0,sp,144
     2c0:	0134                	addi	a3,sp,136
     2c2:	0001                	nop
     2c4:	0070                	addi	a2,sp,12
     2c6:	0000                	unimp
     2c8:	5201                	li	tp,-32
     2ca:	19bd                	addi	s3,s3,-17
     2cc:	0000                	unimp
     2ce:	00001a6f          	jal	s4,12ce <core::panicking::panic_bounds_check-0xedc6>
     2d2:	a202                	.insn	2, 0xa202
     2d4:	10b9                	addi	ra,ra,-18
     2d6:	0000                	unimp
     2d8:	a20a                	.insn	2, 0xa20a
     2da:	0001                	nop
     2dc:	fa00                	.insn	2, 0xfa00
     2de:	0004                	.insn	2, 0x0004
     2e0:	0200                	addi	s0,sp,256
     2e2:	eaa2                	.insn	2, 0xeaa2
     2e4:	000d                	c.nop	3
     2e6:	0a00                	addi	s0,sp,272
     2e8:	01c8                	addi	a0,sp,196
     2ea:	0000                	unimp
     2ec:	00001fbb          	.insn	4, 0x1fbb
     2f0:	a202                	.insn	2, 0xa202
     2f2:	00000df7          	.insn	4, 0x0df7
     2f6:	0101480b          	.insn	4, 0x0101480b
     2fa:	4c00                	lw	s0,24(s0)
     2fc:	0000                	unimp
     2fe:	0d00                	addi	s0,sp,656
     300:	6301                	.insn	2, 0x6301
     302:	1fa8                	addi	a0,sp,1016
     304:	0000                	unimp
     306:	0204                	addi	s1,sp,256
     308:	2510                	.insn	2, 0x2510
     30a:	000e                	c.slli	zero,0x3
     30c:	0b00                	addi	s0,sp,400
     30e:	014a                	slli	sp,sp,0x12
     310:	0001                	nop
     312:	004a                	c.slli	zero,0x12
     314:	0000                	unimp
     316:	ee0e                	.insn	2, 0xee0e
     318:	0001                	nop
     31a:	e500                	.insn	2, 0xe500
     31c:	0000                	unimp
     31e:	0400                	addi	s0,sp,512
     320:	1102                	slli	sp,sp,0x20
     322:	0e25                	addi	t3,t3,9
     324:	0000                	unimp
     326:	0101500b          	.insn	4, 0x0101500b
     32a:	4400                	lw	s0,8(s0)
     32c:	0000                	unimp
     32e:	0e00                	addi	s0,sp,784
     330:	0209                	addi	tp,tp,2 # 2 <core::panicking::panic_bounds_check-0x10092>
     332:	0000                	unimp
     334:	00ea                	slli	ra,ra,0x1a
     336:	0000                	unimp
     338:	0204                	addi	s1,sp,256
     33a:	2512                	.insn	2, 0x2512
     33c:	000e                	c.slli	zero,0x3
     33e:	1100                	addi	s0,sp,160
     340:	00a8                	addi	a0,sp,72
     342:	0000                	unimp
     344:	3f0e                	.insn	2, 0x3f0e
     346:	0002                	c.slli64	zero
     348:	0100                	addi	s0,sp,128
     34a:	0015                	c.nop	5
     34c:	0400                	addi	s0,sp,512
     34e:	a402                	.insn	2, 0xa402
     350:	10b9                	addi	ra,ra,-18
     352:	0000                	unimp
     354:	1100                	addi	s0,sp,160
     356:	00c0                	addi	s0,sp,68
     358:	0000                	unimp
     35a:	240e                	.insn	2, 0x240e
     35c:	0002                	c.slli64	zero
     35e:	bb00                	.insn	2, 0xbb00
     360:	001f 0400 a502      	.insn	6, 0xa5020400001f
     366:	00000df7          	.insn	4, 0x0df7
     36a:	0000                	unimp
     36c:	0000                	unimp
     36e:	f705                	bnez	a4,296 <core::panicking::panic_bounds_check-0xfdfe>
     370:	000d                	c.nop	3
     372:	c200                	sw	s0,0(a2)
     374:	0000                	unimp
     376:	0000                	unimp
     378:	a414                	.insn	2, 0xa414
     37a:	0101                	addi	sp,sp,0
     37c:	0800                	addi	s0,sp,16
     37e:	0000                	unimp
     380:	0100                	addi	s0,sp,128
     382:	7952                	.insn	2, 0x7952
     384:	001a                	c.slli	zero,0x6
     386:	2c00                	.insn	2, 0x2c00
     388:	0200001b          	.insn	4, 0x0200001b
     38c:	5a0115ef          	jal	a1,1192c <__BSS_END__+0xa0>
     390:	04fa                	slli	s1,s1,0x1e
     392:	0000                	unimp
     394:	ef02                	.insn	2, 0xef02
     396:	0dea                	slli	s11,s11,0x1a
     398:	0000                	unimp
     39a:	0101a40b          	.insn	4, 0x0101a40b
     39e:	0600                	addi	s0,sp,768
     3a0:	0000                	unimp
     3a2:	0c00                	addi	s0,sp,528
     3a4:	1fa8                	addi	a0,sp,1016
     3a6:	0000                	unimp
     3a8:	0204                	addi	s1,sp,256
     3aa:	2510                	.insn	2, 0x2510
     3ac:	000e                	c.slli	zero,0x3
     3ae:	0b00                	addi	s0,sp,400
     3b0:	01a4                	addi	s1,sp,200
     3b2:	0001                	nop
     3b4:	0006                	c.slli	zero,0x1
     3b6:	0000                	unimp
     3b8:	e50c                	.insn	2, 0xe50c
     3ba:	0000                	unimp
     3bc:	0400                	addi	s0,sp,512
     3be:	1102                	slli	sp,sp,0x20
     3c0:	0e25                	addi	t3,t3,9
     3c2:	0000                	unimp
     3c4:	0101a40b          	.insn	4, 0x0101a40b
     3c8:	0600                	addi	s0,sp,768
     3ca:	0000                	unimp
     3cc:	0c00                	addi	s0,sp,528
     3ce:	00ea                	slli	ra,ra,0x1a
     3d0:	0000                	unimp
     3d2:	0204                	addi	s1,sp,256
     3d4:	2512                	.insn	2, 0x2512
     3d6:	000e                	c.slli	zero,0x3
     3d8:	0000                	unimp
     3da:	0000                	unimp
     3dc:	f705                	bnez	a4,304 <core::panicking::panic_bounds_check-0xfd90>
     3de:	000d                	c.nop	3
     3e0:	c200                	sw	s0,0(a2)
     3e2:	0000                	unimp
     3e4:	0000                	unimp
     3e6:	ac14                	.insn	2, 0xac14
     3e8:	0101                	addi	sp,sp,0
     3ea:	8a00                	.insn	2, 0x8a00
     3ec:	0000                	unimp
     3ee:	0100                	addi	s0,sp,128
     3f0:	3752                	.insn	2, 0x3752
     3f2:	eb00001b          	.insn	4, 0xeb00001b
     3f6:	0200001b          	.insn	4, 0x0200001b
     3fa:	0af9                	addi	s5,s5,30
     3fc:	025f 0000 04fa      	.insn	6, 0x04fa0000025f
     402:	0000                	unimp
     404:	f902                	.insn	2, 0xf902
     406:	0dea                	slli	s11,s11,0x1a
     408:	0000                	unimp
     40a:	fd10                	.insn	2, 0xfd10
     40c:	0004                	.insn	2, 0x0004
     40e:	0200                	addi	s0,sp,256
     410:	27f9                	jal	bde <core::panicking::panic_bounds_check-0xf4b6>
     412:	11000007          	.insn	4, 0x11000007
     416:	00e0                	addi	s0,sp,76
     418:	0000                	unimp
     41a:	010d                	addi	sp,sp,3
     41c:	001fa85b          	.insn	4, 0x001fa85b
     420:	0400                	addi	s0,sp,512
     422:	1002                	c.slli	zero,0x20
     424:	0e25                	addi	t3,t3,9
     426:	0000                	unimp
     428:	f811                	bnez	s0,33c <core::panicking::panic_bounds_check-0xfd58>
     42a:	0000                	unimp
     42c:	0e00                	addi	s0,sp,784
     42e:	027a                	slli	tp,tp,0x1e
     430:	0000                	unimp
     432:	00e5                	addi	ra,ra,25
     434:	0000                	unimp
     436:	0204                	addi	s1,sp,256
     438:	2511                	jal	a3c <core::panicking::panic_bounds_check-0xf658>
     43a:	000e                	c.slli	zero,0x3
     43c:	1100                	addi	s0,sp,160
     43e:	0110                	addi	a2,sp,128
     440:	0000                	unimp
     442:	010d                	addi	sp,sp,3
     444:	ea6c                	.insn	2, 0xea6c
     446:	0000                	unimp
     448:	0400                	addi	s0,sp,512
     44a:	1202                	slli	tp,tp,0x20
     44c:	0e25                	addi	t3,t3,9
     44e:	0000                	unimp
     450:	1011                	c.nop	-28
     452:	0001                	nop
     454:	0d00                	addi	s0,sp,656
     456:	5b01                	li	s6,-32
     458:	0c84                	addi	s1,sp,592
     45a:	0000                	unimp
     45c:	0204                	addi	s1,sp,256
     45e:	25fe                	.insn	2, 0x25fe
     460:	000e                	c.slli	zero,0x3
     462:	1100                	addi	s0,sp,160
     464:	0110                	addi	a2,sp,128
     466:	0000                	unimp
     468:	9516                	add	a0,a0,t0
     46a:	0002                	c.slli64	zero
     46c:	bf00                	.insn	2, 0xbf00
     46e:	001f 0400 0002      	.insn	6, 0x00020400001f
     474:	2501                	jal	a74 <core::panicking::panic_bounds_check-0xf620>
     476:	000e                	c.slli	zero,0x3
     478:	1100                	addi	s0,sp,160
     47a:	0110                	addi	a2,sp,128
     47c:	0000                	unimp
     47e:	bb16                	.insn	2, 0xbb16
     480:	0002                	c.slli64	zero
     482:	c300                	sw	s0,0(a4)
     484:	001f 0400 0202      	.insn	6, 0x02020400001f
     48a:	2501                	jal	a8a <core::panicking::panic_bounds_check-0xf60a>
     48c:	000e                	c.slli	zero,0x3
     48e:	1700                	addi	s0,sp,928
     490:	06fa                	slli	a3,a3,0x1e
     492:	0000                	unimp
     494:	0128                	addi	a0,sp,136
     496:	0000                	unimp
     498:	0502                	c.slli64	a0
     49a:	1001                	c.nop	-32
     49c:	e118                	.insn	2, 0xe118
     49e:	0002                	c.slli64	zero
     4a0:	1100                	addi	s0,sp,160
     4a2:	11000007          	.insn	4, 0x11000007
     4a6:	0140                	addi	s0,sp,132
     4a8:	0000                	unimp
     4aa:	0719                	addi	a4,a4,6
     4ac:	19000003          	lb	zero,400(zero) # 190 <core::panicking::panic_bounds_check-0xff04>
     4b0:	1a000007          	.insn	4, 0x1a000007
     4b4:	00000e6b          	.insn	4, 0x0e6b
     4b8:	0158                	addi	a4,sp,132
     4ba:	0000                	unimp
     4bc:	3f01                	jal	3cc <core::panicking::panic_bounds_check-0xfcc8>
     4be:	5e01131b          	.insn	4, 0x5e01131b
     4c2:	0e85                	addi	t4,t4,1
     4c4:	0000                	unimp
     4c6:	1a00                	addi	s0,sp,304
     4c8:	00000e6b          	.insn	4, 0x0e6b
     4cc:	0170                	addi	a2,sp,140
     4ce:	0000                	unimp
     4d0:	3f01                	jal	3e0 <core::panicking::panic_bounds_check-0xfcb4>
     4d2:	182a                	slli	a6,a6,0x2a
     4d4:	0322                	slli	t1,t1,0x8
     4d6:	0000                	unimp
     4d8:	0e85                	addi	t4,t4,1
	...
     4e2:	0000                	unimp
     4e4:	0500                	addi	s0,sp,640
     4e6:	00000df7          	.insn	4, 0x0df7
     4ea:	00c2                	slli	ra,ra,0x10
     4ec:	0000                	unimp
     4ee:	2705                	jal	c0e <core::panicking::panic_bounds_check-0xf486>
     4f0:	da000007          	.insn	4, 0xda000007
     4f4:	00000017          	auipc	zero,0x0
     4f8:	3609                	jal	fffffffa <__global_pointer$+0xfffedf6e>
     4fa:	0102                	c.slli64	sp
     4fc:	4600                	lw	s0,8(a2)
     4fe:	0000                	unimp
     500:	0100                	addi	s0,sp,128
     502:	3952                	.insn	2, 0x3952
     504:	001c                	.insn	2, 0x001c
     506:	ee00                	.insn	2, 0xee00
     508:	001c                	.insn	2, 0x001c
     50a:	0200                	addi	s0,sp,256
     50c:	b9ba                	.insn	2, 0xb9ba
     50e:	0010                	.insn	2, 0x0010
     510:	0a00                	addi	s0,sp,272
     512:	0000033f 000004fa 	.insn	8, 0x04fa0000033f
     51a:	ba02                	.insn	2, 0xba02
     51c:	0dea                	slli	s11,s11,0x1a
     51e:	0000                	unimp
     520:	0102460b          	.insn	4, 0x0102460b
     524:	2a00                	.insn	2, 0x2a00
     526:	0000                	unimp
     528:	0d00                	addi	s0,sp,656
     52a:	6201                	.insn	2, 0x6201
     52c:	1fa8                	addi	a0,sp,1016
     52e:	0000                	unimp
     530:	0204                	addi	s1,sp,256
     532:	2510                	.insn	2, 0x2510
     534:	000e                	c.slli	zero,0x3
     536:	0b00                	addi	s0,sp,400
     538:	0248                	addi	a0,sp,260
     53a:	0001                	nop
     53c:	0028                	addi	a0,sp,8
     53e:	0000                	unimp
     540:	010d                	addi	sp,sp,3
     542:	e559                	bnez	a0,5d0 <core::panicking::panic_bounds_check-0xfac4>
     544:	0000                	unimp
     546:	0400                	addi	s0,sp,512
     548:	1102                	slli	sp,sp,0x20
     54a:	0e25                	addi	t3,t3,9
     54c:	0000                	unimp
     54e:	0102480b          	.insn	4, 0x0102480b
     552:	2800                	.insn	2, 0x2800
     554:	0000                	unimp
     556:	0c00                	addi	s0,sp,528
     558:	00ea                	slli	ra,ra,0x1a
     55a:	0000                	unimp
     55c:	0204                	addi	s1,sp,256
     55e:	2512                	.insn	2, 0x2512
     560:	000e                	c.slli	zero,0x3
     562:	1100                	addi	s0,sp,160
     564:	0188                	addi	a0,sp,192
     566:	0000                	unimp
     568:	650e                	.insn	2, 0x650e
     56a:	bb000003          	lb	zero,-1104(zero) # fffffbb0 <__global_pointer$+0xfffedb24>
     56e:	001f 0400 bd02      	.insn	6, 0xbd020400001f
     574:	00000df7          	.insn	4, 0x0df7
     578:	0000                	unimp
     57a:	0000                	unimp
     57c:	f705                	bnez	a4,4a4 <core::panicking::panic_bounds_check-0xfbf0>
     57e:	000d                	c.nop	3
     580:	c200                	sw	s0,0(a2)
     582:	0000                	unimp
     584:	0000                	unimp
     586:	7c09                	lui	s8,0xfffe2
     588:	0102                	c.slli64	sp
     58a:	4e00                	lw	s0,24(a2)
     58c:	0000                	unimp
     58e:	0100                	addi	s0,sp,128
     590:	fb52                	.insn	2, 0xfb52
     592:	001c                	.insn	2, 0x001c
     594:	b000                	.insn	2, 0xb000
     596:	001d                	c.nop	7
     598:	0200                	addi	s0,sp,256
     59a:	000e338b          	.insn	4, 0x000e338b
     59e:	0a00                	addi	s0,sp,272
     5a0:	0380                	addi	s0,sp,448
     5a2:	0000                	unimp
     5a4:	04fa                	slli	s1,s1,0x1e
     5a6:	0000                	unimp
     5a8:	8b02                	jr	s6
     5aa:	0dea                	slli	s11,s11,0x1a
     5ac:	0000                	unimp
     5ae:	a60a                	.insn	2, 0xa60a
     5b0:	bb000003          	lb	zero,-1104(zero) # fffffbb0 <__global_pointer$+0xfffedb24>
     5b4:	001f 0200 f78b      	.insn	6, 0xf78b0200001f
     5ba:	000d                	c.nop	3
     5bc:	0b00                	addi	s0,sp,400
     5be:	028e                	slli	t0,t0,0x3
     5c0:	0001                	nop
     5c2:	002a                	c.slli	zero,0xa
     5c4:	0000                	unimp
     5c6:	010d                	addi	sp,sp,3
     5c8:	001fa863          	.insn	4, 0x001fa863
     5cc:	0400                	addi	s0,sp,512
     5ce:	1002                	c.slli	zero,0x20
     5d0:	0e25                	addi	t3,t3,9
     5d2:	0000                	unimp
     5d4:	01028e0b          	.insn	4, 0x01028e0b
     5d8:	2a00                	.insn	2, 0x2a00
     5da:	0000                	unimp
     5dc:	0c00                	addi	s0,sp,528
     5de:	00e5                	addi	ra,ra,25
     5e0:	0000                	unimp
     5e2:	0204                	addi	s1,sp,256
     5e4:	2511                	jal	be8 <core::panicking::panic_bounds_check-0xf4ac>
     5e6:	000e                	c.slli	zero,0x3
     5e8:	0b00                	addi	s0,sp,400
     5ea:	0292                	slli	t0,t0,0x4
     5ec:	0001                	nop
     5ee:	0026                	c.slli	zero,0x9
     5f0:	0000                	unimp
     5f2:	cc0e                	sw	gp,24(sp)
     5f4:	ea000003          	lb	zero,-352(zero) # fffffea0 <__global_pointer$+0xfffede14>
     5f8:	0000                	unimp
     5fa:	0400                	addi	s0,sp,512
     5fc:	1202                	slli	tp,tp,0x20
     5fe:	0e25                	addi	t3,t3,9
     600:	0000                	unimp
     602:	0000                	unimp
     604:	0500                	addi	s0,sp,640
     606:	00000df7          	.insn	4, 0x0df7
     60a:	00c2                	slli	ra,ra,0x10
     60c:	0000                	unimp
     60e:	0900                	addi	s0,sp,144
     610:	02ca                	slli	t0,t0,0x12
     612:	0001                	nop
     614:	001a                	c.slli	zero,0x6
     616:	0000                	unimp
     618:	5201                	li	tp,-32
     61a:	1dbd                	addi	s11,s11,-17
     61c:	0000                	unimp
     61e:	1e72                	slli	t3,t3,0x3c
     620:	0000                	unimp
     622:	6d02                	.insn	2, 0x6d02
     624:	00000e33          	add	t3,zero,zero
     628:	e70a                	.insn	2, 0xe70a
     62a:	fa000003          	lb	zero,-96(zero) # ffffffa0 <__global_pointer$+0xfffedf14>
     62e:	0004                	.insn	2, 0x0004
     630:	0200                	addi	s0,sp,256
     632:	cb6d                	beqz	a4,724 <core::panicking::panic_bounds_check-0xf970>
     634:	0016                	c.slli	zero,0x5
     636:	1100                	addi	s0,sp,160
     638:	01a8                	addi	a0,sp,200
     63a:	0000                	unimp
     63c:	1d0e                	slli	s10,s10,0x23
     63e:	0004                	.insn	2, 0x0004
     640:	a800                	.insn	2, 0xa800
     642:	001f 0400 1002      	.insn	6, 0x10020400001f
     648:	0e25                	addi	t3,t3,9
     64a:	0000                	unimp
     64c:	c011                	beqz	s0,650 <core::panicking::panic_bounds_check-0xfa44>
     64e:	0001                	nop
     650:	0e00                	addi	s0,sp,784
     652:	0438                	addi	a4,sp,520
     654:	0000                	unimp
     656:	00e5                	addi	ra,ra,25
     658:	0000                	unimp
     65a:	0204                	addi	s1,sp,256
     65c:	2511                	jal	c60 <core::panicking::panic_bounds_check-0xf434>
     65e:	000e                	c.slli	zero,0x3
     660:	0b00                	addi	s0,sp,400
     662:	02d0                	addi	a2,sp,324
     664:	0001                	nop
     666:	0012                	c.slli	zero,0x4
     668:	0000                	unimp
     66a:	020e                	slli	tp,tp,0x3
     66c:	0004                	.insn	2, 0x0004
     66e:	ea00                	.insn	2, 0xea00
     670:	0000                	unimp
     672:	0400                	addi	s0,sp,512
     674:	1202                	slli	tp,tp,0x20
     676:	0e25                	addi	t3,t3,9
     678:	0000                	unimp
     67a:	0000                	unimp
     67c:	0500                	addi	s0,sp,640
     67e:	00000df7          	.insn	4, 0x0df7
     682:	00c2                	slli	ra,ra,0x10
     684:	0000                	unimp
     686:	0000                	unimp
     688:	0000                	unimp
     68a:	7a02                	.insn	2, 0x7a02
     68c:	0002                	c.slli64	zero
     68e:	0200                	addi	s0,sp,256
     690:	0295                	addi	t0,t0,5 # 1059d <memset+0x93>
     692:	0000                	unimp
     694:	0002a11b          	.insn	4, 0x0002a11b
     698:	9500                	.insn	2, 0x9500
     69a:	0002                	c.slli64	zero
     69c:	0100                	addi	s0,sp,128
     69e:	000e333b          	.insn	4, 0x000e333b
     6a2:	0100                	addi	s0,sp,128
     6a4:	011c                	addi	a5,sp,128
     6a6:	000e3a3b          	.insn	4, 0x000e3a3b
     6aa:	1c00                	addi	s0,sp,560
     6ac:	3b01                	jal	3bc <core::panicking::panic_bounds_check-0xfcd8>
     6ae:	00000e47          	.insn	4, 0x0e47
     6b2:	0c1d                	addi	s8,s8,7 # fffe2007 <__global_pointer$+0xfffcff7b>
     6b4:	0768                	addi	a0,sp,908
     6b6:	0000                	unimp
     6b8:	0104                	addi	s1,sp,128
     6ba:	000df73b          	.insn	4, 0x000df73b
     6be:	0000                	unimp
     6c0:	1e00                	addi	s0,sp,816
     6c2:	11be                	slli	gp,gp,0x2f
     6c4:	0000                	unimp
     6c6:	0100                	addi	s0,sp,128
     6c8:	1f00                	addi	s0,sp,944
     6ca:	000012bf 00000295 	.insn	8, 0x0295000012bf
     6d2:	3901                	jal	2e2 <core::panicking::panic_bounds_check-0xfdb2>
     6d4:	1c01                	addi	s8,s8,-32
     6d6:	3901                	jal	2e6 <core::panicking::panic_bounds_check-0xfdae>
     6d8:	1a5d                	addi	s4,s4,-9 # fffdfff7 <__global_pointer$+0xfffcdf6b>
     6da:	0000                	unimp
     6dc:	d910                	sw	a2,48(a0)
     6de:	0100000b          	.insn	4, 0x0100000b
     6e2:	ea39                	bnez	a2,738 <core::panicking::panic_bounds_check-0xf95c>
     6e4:	000d                	c.nop	3
     6e6:	0000                	unimp
     6e8:	be1e                	.insn	2, 0xbe1e
     6ea:	0011                	c.nop	4
     6ec:	0000                	unimp
     6ee:	0001                	nop
     6f0:	8302                	jr	t1
     6f2:	02000003          	lb	zero,32(zero) # 20 <core::panicking::panic_bounds_check-0x10074>
     6f6:	0295                	addi	t0,t0,5
     6f8:	0000                	unimp
     6fa:	00038f1b          	.insn	4, 0x00038f1b
     6fe:	9500                	.insn	2, 0x9500
     700:	0002                	c.slli64	zero
     702:	0100                	addi	s0,sp,128
     704:	000e333f 011c0100 	.insn	8, 0x011c0100000e333f
     70c:	000e543f 3f011c00 	.insn	8, 0x3f011c00000e543f
     714:	00000e47          	.insn	4, 0x0e47
     718:	0c1d                	addi	s8,s8,7
     71a:	0768                	addi	a0,sp,908
     71c:	0000                	unimp
     71e:	0104                	addi	s1,sp,128
     720:	000df73f 1e000000 	.insn	8, 0x1e000000000df73f
     728:	11be                	slli	gp,gp,0x2f
     72a:	0000                	unimp
     72c:	0100                	addi	s0,sp,128
     72e:	1f00                	addi	s0,sp,944
     730:	0b4a                	slli	s6,s6,0x12
     732:	0000                	unimp
     734:	0295                	addi	t0,t0,5
     736:	0000                	unimp
     738:	3e01                	jal	248 <core::panicking::panic_bounds_check-0xfe4c>
     73a:	1c01                	addi	s8,s8,-32
     73c:	3e01                	jal	24c <core::panicking::panic_bounds_check-0xfe48>
     73e:	000019db          	.insn	4, 0x19db
     742:	d910                	sw	a2,48(a0)
     744:	0100000b          	.insn	4, 0x0100000b
     748:	ea3e                	.insn	2, 0xea3e
     74a:	000d                	c.nop	3
     74c:	0000                	unimp
     74e:	be1e                	.insn	2, 0xbe1e
     750:	0011                	c.nop	4
     752:	0000                	unimp
     754:	0001                	nop
     756:	0020                	addi	s0,sp,8
     758:	0000                	unimp
     75a:	0400                	addi	s0,sp,512
     75c:	0000                	unimp
     75e:	0100                	addi	s0,sp,128
     760:	7f52                	.insn	2, 0x7f52
     762:	001e                	c.slli	zero,0x7
     764:	0100                	addi	s0,sp,128
     766:	f748                	.insn	2, 0xf748
     768:	000d                	c.nop	3
     76a:	2100                	.insn	2, 0x2100
     76c:	00000383          	lb	t2,0(zero) # 0 <core::panicking::panic_bounds_check-0x10094>
     770:	1201                	addi	tp,tp,-32 # ffffffe0 <__global_pointer$+0xfffedf54>
     772:	1001                	c.nop	-32
     774:	0bd9                	addi	s7,s7,22
     776:	0000                	unimp
     778:	1201                	addi	tp,tp,-32 # ffffffe0 <__global_pointer$+0xfffedf54>
     77a:	0dea                	slli	s11,s11,0x1a
     77c:	0000                	unimp
     77e:	0200                	addi	s0,sp,256
     780:	0bdd                	addi	s7,s7,23
     782:	0000                	unimp
     784:	e81f 000b 9500      	.insn	6, 0x9500000be81f
     78a:	0002                	c.slli64	zero
     78c:	0100                	addi	s0,sp,128
     78e:	0142                	slli	sp,sp,0x10
     790:	011c                	addi	a5,sp,128
     792:	e842                	.insn	2, 0xe842
     794:	0019                	c.nop	6
     796:	1000                	addi	s0,sp,32
     798:	0bd9                	addi	s7,s7,22
     79a:	0000                	unimp
     79c:	4201                	li	tp,0
     79e:	0dea                	slli	s11,s11,0x1a
     7a0:	0000                	unimp
     7a2:	1e00                	addi	s0,sp,816
     7a4:	11be                	slli	gp,gp,0x2f
     7a6:	0000                	unimp
     7a8:	0100                	addi	s0,sp,128
     7aa:	2100                	.insn	2, 0x2100
     7ac:	0bdd                	addi	s7,s7,23
     7ae:	0000                	unimp
     7b0:	1201                	addi	tp,tp,-32 # ffffffe0 <__global_pointer$+0xfffedf54>
     7b2:	1001                	c.nop	-32
     7b4:	0bd9                	addi	s7,s7,22
     7b6:	0000                	unimp
     7b8:	1201                	addi	tp,tp,-32 # ffffffe0 <__global_pointer$+0xfffedf54>
     7ba:	0dea                	slli	s11,s11,0x1a
     7bc:	0000                	unimp
     7be:	2200                	.insn	2, 0x2200
     7c0:	035a                	slli	t1,t1,0x16
     7c2:	0001                	nop
     7c4:	008e                	slli	ra,ra,0x3
     7c6:	0000                	unimp
     7c8:	5201                	li	tp,-32
     7ca:	00001e83          	lh	t4,0(zero) # 0 <core::panicking::panic_bounds_check-0x10094>
     7ce:	4d01                	li	s10,0
     7d0:	01036c0b          	.insn	4, 0x01036c0b
     7d4:	7c00                	.insn	2, 0x7c00
     7d6:	0000                	unimp
     7d8:	0d00                	addi	s0,sp,656
     7da:	9102                	jalr	sp
     7dc:	d208                	sw	a0,32(a2)
     7de:	001f 0400 4f01      	.insn	6, 0x4f010400001f
     7e4:	00001bff 0103780b 	.insn	12, 0x70000103780b00001bff
     7ec:	00007000 
     7f0:	0d00                	addi	s0,sp,656
     7f2:	9102                	jalr	sp
     7f4:	d91c                	sw	a5,48(a0)
     7f6:	0400000b          	.insn	4, 0x0400000b
     7fa:	5001                	c.li	zero,-32
     7fc:	00000047          	.insn	4, 0x0047
     800:	6b12                	.insn	2, 0x6b12
     802:	d2000007          	.insn	4, 0xd2000007
     806:	0a000103          	lb	sp,160(zero) # a0 <core::panicking::panic_bounds_check-0xfff4>
     80a:	0000                	unimp
     80c:	0100                	addi	s0,sp,128
     80e:	0313055b          	.insn	4, 0x0313055b
     812:	1c91                	addi	s9,s9,-28
     814:	739f 0007 1200      	.insn	6, 0x12000007739f
     81a:	0000072f          	.insn	4, 0x072f
     81e:	03d2                	slli	t2,t2,0x14
     820:	0001                	nop
     822:	000a                	c.slli	zero,0x2
     824:	0000                	unimp
     826:	1301                	addi	t1,t1,-32 # ffff9fe0 <__global_pointer$+0xfffe7f54>
     828:	230d                	jal	d4a <core::panicking::panic_bounds_check-0xf34a>
     82a:	3b01                	jal	53a <core::panicking::panic_bounds_check-0xfb5a>
     82c:	13000007          	.insn	4, 0x13000007
     830:	9f1c9103          	lh	sp,-1551(s9)
     834:	0742                	slli	a4,a4,0x10
     836:	0000                	unimp
     838:	0000                	unimp
     83a:	ab12                	.insn	2, 0xab12
     83c:	dc000007          	.insn	4, 0xdc000007
     840:	0a000103          	lb	sp,160(zero) # a0 <core::panicking::panic_bounds_check-0xfff4>
     844:	0000                	unimp
     846:	0100                	addi	s0,sp,128
     848:	055c                	addi	a5,sp,644
     84a:	1c910313          	addi	t1,sp,457
     84e:	b39f 0007 1200      	.insn	6, 0x12000007b39f
     854:	0784                	addi	s1,sp,960
     856:	0000                	unimp
     858:	03dc                	addi	a5,sp,452
     85a:	0001                	nop
     85c:	000a                	c.slli	zero,0x2
     85e:	0000                	unimp
     860:	1301                	addi	t1,t1,-32
     862:	230d                	jal	d84 <core::panicking::panic_bounds_check-0xf310>
     864:	9001                	srli	s0,s0,0x20
     866:	13000007          	.insn	4, 0x13000007
     86a:	9f1c9103          	lh	sp,-1551(s9)
     86e:	00000797          	auipc	a5,0x0
     872:	0000                	unimp
     874:	0000                	unimp
     876:	2400                	.insn	2, 0x2400
     878:	03e8                	addi	a0,sp,460
     87a:	0001                	nop
     87c:	0008                	.insn	2, 0x0008
     87e:	0000                	unimp
     880:	5201                	li	tp,-32
     882:	1e88                	addi	a0,sp,880
     884:	0000                	unimp
     886:	7501                	lui	a0,0xfffe0
     888:	0025                	c.nop	9
     88a:	0000                	unimp
     88c:	0200                	addi	s0,sp,256
     88e:	0000                	unimp
     890:	0100                	addi	s0,sp,128
     892:	8f52                	mv	t5,s4
     894:	001e                	c.slli	zero,0x7
     896:	0100                	addi	s0,sp,128
     898:	0c75027b          	.insn	4, 0x0c75027b
     89c:	0000                	unimp
     89e:	881f 000c 9500      	.insn	6, 0x9500000c881f
     8a4:	0002                	c.slli64	zero
     8a6:	0100                	addi	s0,sp,128
     8a8:	0119                	addi	sp,sp,6
     8aa:	011c                	addi	a5,sp,128
     8ac:	f519                	bnez	a0,7ba <core::panicking::panic_bounds_check-0xf8da>
     8ae:	0019                	c.nop	6
     8b0:	1000                	addi	s0,sp,32
     8b2:	0bd9                	addi	s7,s7,22
     8b4:	0000                	unimp
     8b6:	1901                	addi	s2,s2,-32
     8b8:	0dea                	slli	s11,s11,0x1a
     8ba:	0000                	unimp
     8bc:	1e00                	addi	s0,sp,816
     8be:	11be                	slli	gp,gp,0x2f
     8c0:	0000                	unimp
     8c2:	0100                	addi	s0,sp,128
     8c4:	2600                	.insn	2, 0x2600
     8c6:	03f0                	addi	a2,sp,460
     8c8:	0001                	nop
     8ca:	0018                	.insn	2, 0x0018
     8cc:	0000                	unimp
     8ce:	5201                	li	tp,-32
     8d0:	0c75                	addi	s8,s8,29
     8d2:	0000                	unimp
     8d4:	1201                	addi	tp,tp,-32 # ffffffe0 <__global_pointer$+0xfffedf54>
     8d6:	680a                	.insn	2, 0x680a
     8d8:	d9000007          	.insn	4, 0xd9000007
     8dc:	0100000b          	.insn	4, 0x0100000b
     8e0:	ea12                	.insn	2, 0xea12
     8e2:	000d                	c.nop	3
     8e4:	1200                	addi	s0,sp,288
     8e6:	089e                	slli	a7,a7,0x7
     8e8:	0000                	unimp
     8ea:	03f4                	addi	a3,sp,460
     8ec:	0001                	nop
     8ee:	0014                	.insn	2, 0x0014
     8f0:	0000                	unimp
     8f2:	1301                	addi	t1,t1,-32
     8f4:	230d                	jal	e16 <core::panicking::panic_bounds_check-0xf27e>
     8f6:	aa01                	j	a06 <core::panicking::panic_bounds_check-0xf68e>
     8f8:	0008                	.insn	2, 0x0008
     8fa:	1800                	addi	s0,sp,48
     8fc:	00000783          	lb	a5,0(zero) # 0 <core::panicking::panic_bounds_check-0x10094>
     900:	08b1                	addi	a7,a7,12
     902:	0000                	unimp
     904:	9212                	add	tp,tp,tp
     906:	000e                	c.slli	zero,0x3
     908:	fc00                	.insn	2, 0xfc00
     90a:	0c000103          	lb	sp,192(zero) # c0 <core::panicking::panic_bounds_check-0xffd4>
     90e:	0000                	unimp
     910:	0100                	addi	s0,sp,128
     912:	051a                	slli	a0,a0,0x6
     914:	9e18                	.insn	2, 0x9e18
     916:	ac000007          	.insn	4, 0xac000007
     91a:	000e                	c.slli	zero,0x3
     91c:	0000                	unimp
     91e:	0000                	unimp
     920:	6202                	.insn	2, 0x6202
     922:	000d                	c.nop	3
     924:	1f00                	addi	s0,sp,944
     926:	0d71                	addi	s10,s10,28 # 1801c <__global_pointer$+0x5f90>
     928:	0000                	unimp
     92a:	0295                	addi	t0,t0,5
     92c:	0000                	unimp
     92e:	1d01                	addi	s10,s10,-32
     930:	1c01                	addi	s8,s8,-32
     932:	1d01                	addi	s10,s10,-32
     934:	1a02                	slli	s4,s4,0x20
     936:	0000                	unimp
     938:	d910                	sw	a2,48(a0)
     93a:	0100000b          	.insn	4, 0x0100000b
     93e:	ea1d                	bnez	a2,974 <core::panicking::panic_bounds_check-0xf720>
     940:	000d                	c.nop	3
     942:	0000                	unimp
     944:	be1e                	.insn	2, 0xbe1e
     946:	0011                	c.nop	4
     948:	0000                	unimp
     94a:	0001                	nop
     94c:	0826                	slli	a6,a6,0x9
     94e:	0104                	addi	s1,sp,128
     950:	1c00                	addi	s0,sp,560
     952:	0000                	unimp
     954:	0100                	addi	s0,sp,128
     956:	6252                	.insn	2, 0x6252
     958:	000d                	c.nop	3
     95a:	0100                	addi	s0,sp,128
     95c:	0a12                	slli	s4,s4,0x4
     95e:	07b9                	addi	a5,a5,14 # 87c <core::panicking::panic_bounds_check-0xf818>
     960:	0000                	unimp
     962:	0bd9                	addi	s7,s7,22
     964:	0000                	unimp
     966:	1201                	addi	tp,tp,-32 # ffffffe0 <__global_pointer$+0xfffedf54>
     968:	0dea                	slli	s11,s11,0x1a
     96a:	0000                	unimp
     96c:	2512                	.insn	2, 0x2512
     96e:	0009                	c.nop	2
     970:	1000                	addi	s0,sp,32
     972:	0104                	addi	s1,sp,128
     974:	0c00                	addi	s0,sp,528
     976:	0000                	unimp
     978:	0100                	addi	s0,sp,128
     97a:	01230d13          	addi	s10,t1,18
     97e:	0931                	addi	s2,s2,12
     980:	0000                	unimp
     982:	df18                	sw	a4,56(a4)
     984:	38000007          	.insn	4, 0x38000007
     988:	0009                	c.nop	2
     98a:	2700                	.insn	2, 0x2700
     98c:	0eb9                	addi	t4,t4,14
     98e:	0000                	unimp
     990:	041c                	addi	a5,sp,512
     992:	0001                	nop
     994:	0000                	unimp
     996:	0000                	unimp
     998:	1e01                	addi	t3,t3,-32
     99a:	0005                	c.nop	1
     99c:	0200                	addi	s0,sp,256
     99e:	0e7a                	slli	t3,t3,0x1e
     9a0:	0000                	unimp
     9a2:	8c1f 000e 9500      	.insn	6, 0x9500000e8c1f
     9a8:	0002                	c.slli64	zero
     9aa:	0100                	addi	s0,sp,128
     9ac:	0121                	addi	sp,sp,8
     9ae:	011c                	addi	a5,sp,128
     9b0:	0f21                	addi	t5,t5,8 # 1a008 <__global_pointer$+0x7f7c>
     9b2:	001a                	c.slli	zero,0x6
     9b4:	1000                	addi	s0,sp,32
     9b6:	0bd9                	addi	s7,s7,22
     9b8:	0000                	unimp
     9ba:	2101                	jal	dba <core::panicking::panic_bounds_check-0xf2da>
     9bc:	0dea                	slli	s11,s11,0x1a
     9be:	0000                	unimp
     9c0:	1e00                	addi	s0,sp,816
     9c2:	11be                	slli	gp,gp,0x2f
     9c4:	0000                	unimp
     9c6:	0100                	addi	s0,sp,128
     9c8:	2600                	.insn	2, 0x2600
     9ca:	0424                	addi	s1,sp,520
     9cc:	0001                	nop
     9ce:	001c                	.insn	2, 0x001c
     9d0:	0000                	unimp
     9d2:	5201                	li	tp,-32
     9d4:	0e7a                	slli	t3,t3,0x1e
     9d6:	0000                	unimp
     9d8:	1201                	addi	tp,tp,-32 # ffffffe0 <__global_pointer$+0xfffedf54>
     9da:	fa0a                	.insn	2, 0xfa0a
     9dc:	d9000007          	.insn	4, 0xd9000007
     9e0:	0100000b          	.insn	4, 0x0100000b
     9e4:	ea12                	.insn	2, 0xea12
     9e6:	000d                	c.nop	3
     9e8:	1200                	addi	s0,sp,288
     9ea:	09a2                	slli	s3,s3,0x8
     9ec:	0000                	unimp
     9ee:	0428                	addi	a0,sp,520
     9f0:	0001                	nop
     9f2:	0018                	.insn	2, 0x0018
     9f4:	0000                	unimp
     9f6:	1301                	addi	t1,t1,-32
     9f8:	230d                	jal	f1a <core::panicking::panic_bounds_check-0xf17a>
     9fa:	ae01                	j	d0a <core::panicking::panic_bounds_check-0xf38a>
     9fc:	0009                	c.nop	2
     9fe:	1800                	addi	s0,sp,48
     a00:	0815                	addi	a6,a6,5 # fffe4005 <__global_pointer$+0xfffd1f79>
     a02:	0000                	unimp
     a04:	09b5                	addi	s3,s3,13
     a06:	0000                	unimp
     a08:	e012                	.insn	2, 0xe012
     a0a:	000e                	c.slli	zero,0x3
     a0c:	3000                	.insn	2, 0x3000
     a0e:	0104                	addi	s1,sp,128
     a10:	1000                	addi	s0,sp,32
     a12:	0000                	unimp
     a14:	0100                	addi	s0,sp,128
     a16:	0522                	slli	a0,a0,0x8
     a18:	3018                	.insn	2, 0x3018
     a1a:	0008                	.insn	2, 0x0008
     a1c:	fa00                	.insn	2, 0xfa00
     a1e:	000e                	c.slli	zero,0x3
     a20:	0000                	unimp
     a22:	0000                	unimp
     a24:	6302                	.insn	2, 0x6302
     a26:	1f00000f          	.insn	4, 0x1f00000f
     a2a:	0f70                	addi	a2,sp,924
     a2c:	0000                	unimp
     a2e:	0295                	addi	t0,t0,5
     a30:	0000                	unimp
     a32:	2501                	jal	1032 <core::panicking::panic_bounds_check-0xf062>
     a34:	1c01                	addi	s8,s8,-32
     a36:	2501                	jal	1036 <core::panicking::panic_bounds_check-0xf05e>
     a38:	1a1c                	addi	a5,sp,304
     a3a:	0000                	unimp
     a3c:	d910                	sw	a2,48(a0)
     a3e:	0100000b          	.insn	4, 0x0100000b
     a42:	ea25                	bnez	a2,ab2 <core::panicking::panic_bounds_check-0xf5e2>
     a44:	000d                	c.nop	3
     a46:	0000                	unimp
     a48:	be1e                	.insn	2, 0xbe1e
     a4a:	0011                	c.nop	4
     a4c:	0000                	unimp
     a4e:	0001                	nop
     a50:	4026                	.insn	2, 0x4026
     a52:	0104                	addi	s1,sp,128
     a54:	1c00                	addi	s0,sp,560
     a56:	0000                	unimp
     a58:	0100                	addi	s0,sp,128
     a5a:	6352                	.insn	2, 0x6352
     a5c:	0100000f          	fence	w,unknown
     a60:	0a12                	slli	s4,s4,0x4
     a62:	0850                	addi	a2,sp,20
     a64:	0000                	unimp
     a66:	0bd9                	addi	s7,s7,22
     a68:	0000                	unimp
     a6a:	1201                	addi	tp,tp,-32 # ffffffe0 <__global_pointer$+0xfffedf54>
     a6c:	0dea                	slli	s11,s11,0x1a
     a6e:	0000                	unimp
     a70:	2912                	.insn	2, 0x2912
     a72:	000a                	c.slli	zero,0x2
     a74:	4400                	lw	s0,8(s0)
     a76:	0104                	addi	s1,sp,128
     a78:	1800                	addi	s0,sp,48
     a7a:	0000                	unimp
     a7c:	0100                	addi	s0,sp,128
     a7e:	01230d13          	addi	s10,t1,18
     a82:	0a35                	addi	s4,s4,13
     a84:	0000                	unimp
     a86:	6b18                	.insn	2, 0x6b18
     a88:	0008                	.insn	2, 0x0008
     a8a:	3c00                	.insn	2, 0x3c00
     a8c:	000a                	c.slli	zero,0x2
     a8e:	1200                	addi	s0,sp,288
     a90:	0ee0                	addi	s0,sp,860
     a92:	0000                	unimp
     a94:	044c                	addi	a1,sp,516
     a96:	0001                	nop
     a98:	0010                	.insn	2, 0x0010
     a9a:	0000                	unimp
     a9c:	2601                	jal	d9c <core::panicking::panic_bounds_check-0xf2f8>
     a9e:	1805                	addi	a6,a6,-31
     aa0:	0886                	slli	a7,a7,0x1
     aa2:	0000                	unimp
     aa4:	0efa                	slli	t4,t4,0x1e
     aa6:	0000                	unimp
     aa8:	0000                	unimp
     aaa:	0200                	addi	s0,sp,256
     aac:	1001                	c.nop	-32
     aae:	0000                	unimp
     ab0:	0a1f 0010 9500      	.insn	6, 0x950000100a1f
     ab6:	0002                	c.slli64	zero
     ab8:	0100                	addi	s0,sp,128
     aba:	0129                	addi	sp,sp,10
     abc:	011c                	addi	a5,sp,128
     abe:	2929                	jal	ed8 <core::panicking::panic_bounds_check-0xf1bc>
     ac0:	001a                	c.slli	zero,0x6
     ac2:	1000                	addi	s0,sp,32
     ac4:	0bd9                	addi	s7,s7,22
     ac6:	0000                	unimp
     ac8:	2901                	jal	ed8 <core::panicking::panic_bounds_check-0xf1bc>
     aca:	0dea                	slli	s11,s11,0x1a
     acc:	0000                	unimp
     ace:	1e00                	addi	s0,sp,816
     ad0:	11be                	slli	gp,gp,0x2f
     ad2:	0000                	unimp
     ad4:	0100                	addi	s0,sp,128
     ad6:	2600                	.insn	2, 0x2600
     ad8:	045c                	addi	a5,sp,516
     ada:	0001                	nop
     adc:	0018                	.insn	2, 0x0018
     ade:	0000                	unimp
     ae0:	5201                	li	tp,-32
     ae2:	1001                	c.nop	-32
     ae4:	0000                	unimp
     ae6:	1201                	addi	tp,tp,-32 # ffffffe0 <__global_pointer$+0xfffedf54>
     ae8:	a60a                	.insn	2, 0xa60a
     aea:	0008                	.insn	2, 0x0008
     aec:	d900                	sw	s0,48(a0)
     aee:	0100000b          	.insn	4, 0x0100000b
     af2:	ea12                	.insn	2, 0xea12
     af4:	000d                	c.nop	3
     af6:	1200                	addi	s0,sp,288
     af8:	0ab0                	addi	a2,sp,344
     afa:	0000                	unimp
     afc:	0460                	addi	s0,sp,524
     afe:	0001                	nop
     b00:	0014                	.insn	2, 0x0014
     b02:	0000                	unimp
     b04:	1301                	addi	t1,t1,-32
     b06:	230d                	jal	1028 <core::panicking::panic_bounds_check-0xf06c>
     b08:	bc01                	j	518 <core::panicking::panic_bounds_check-0xfb7c>
     b0a:	000a                	c.slli	zero,0x2
     b0c:	1800                	addi	s0,sp,48
     b0e:	08c1                	addi	a7,a7,16
     b10:	0000                	unimp
     b12:	00000ac3          	.insn	4, 0x0ac3
     b16:	9212                	add	tp,tp,tp
     b18:	000e                	c.slli	zero,0x3
     b1a:	6800                	.insn	2, 0x6800
     b1c:	0104                	addi	s1,sp,128
     b1e:	0c00                	addi	s0,sp,528
     b20:	0000                	unimp
     b22:	0100                	addi	s0,sp,128
     b24:	052a                	slli	a0,a0,0xa
     b26:	dc18                	sw	a4,56(s0)
     b28:	0008                	.insn	2, 0x0008
     b2a:	ac00                	.insn	2, 0xac00
     b2c:	000e                	c.slli	zero,0x3
     b2e:	0000                	unimp
     b30:	0000                	unimp
     b32:	9202                	jalr	tp
     b34:	0010                	.insn	2, 0x0010
     b36:	1f00                	addi	s0,sp,944
     b38:	109f 0000 0295      	.insn	6, 0x02950000109f
     b3e:	0000                	unimp
     b40:	2d01                	jal	1150 <core::panicking::panic_bounds_check-0xef44>
     b42:	1c01                	addi	s8,s8,-32
     b44:	2d01                	jal	1154 <core::panicking::panic_bounds_check-0xef40>
     b46:	1a36                	slli	s4,s4,0x2d
     b48:	0000                	unimp
     b4a:	d910                	sw	a2,48(a0)
     b4c:	0100000b          	.insn	4, 0x0100000b
     b50:	ea2d                	bnez	a2,bc2 <core::panicking::panic_bounds_check-0xf4d2>
     b52:	000d                	c.nop	3
     b54:	0000                	unimp
     b56:	be1e                	.insn	2, 0xbe1e
     b58:	0011                	c.nop	4
     b5a:	0000                	unimp
     b5c:	0001                	nop
     b5e:	7426                	.insn	2, 0x7426
     b60:	0104                	addi	s1,sp,128
     b62:	2400                	.insn	2, 0x2400
     b64:	0000                	unimp
     b66:	0100                	addi	s0,sp,128
     b68:	9252                	add	tp,tp,s4
     b6a:	0010                	.insn	2, 0x0010
     b6c:	0100                	addi	s0,sp,128
     b6e:	0a12                	slli	s4,s4,0x4
     b70:	000008f7          	.insn	4, 0x08f7
     b74:	0bd9                	addi	s7,s7,22
     b76:	0000                	unimp
     b78:	1201                	addi	tp,tp,-32 # ffffffe0 <__global_pointer$+0xfffedf54>
     b7a:	0dea                	slli	s11,s11,0x1a
     b7c:	0000                	unimp
     b7e:	3712                	.insn	2, 0x3712
     b80:	7a00000b          	.insn	4, 0x7a00000b
     b84:	0104                	addi	s1,sp,128
     b86:	1e00                	addi	s0,sp,816
     b88:	0000                	unimp
     b8a:	0100                	addi	s0,sp,128
     b8c:	12180d13          	addi	s10,a6,289
     b90:	0009                	c.nop	2
     b92:	4300                	lw	s0,0(a4)
     b94:	1800000b          	.insn	4, 0x1800000b
     b98:	092e                	slli	s2,s2,0xb
     b9a:	0000                	unimp
     b9c:	0b4a                	slli	s6,s6,0x12
     b9e:	0000                	unimp
     ba0:	000e6b27          	.insn	4, 0x000e6b27
     ba4:	7a00                	.insn	2, 0x7a00
     ba6:	0104                	addi	s1,sp,128
     ba8:	0600                	addi	s0,sp,768
     baa:	0000                	unimp
     bac:	0100                	addi	s0,sp,128
     bae:	1b2e                	slli	s6,s6,0x2b
     bb0:	e012                	.insn	2, 0xe012
     bb2:	000e                	c.slli	zero,0x3
     bb4:	8800                	.insn	2, 0x8800
     bb6:	0104                	addi	s1,sp,128
     bb8:	1000                	addi	s0,sp,32
     bba:	0000                	unimp
     bbc:	0100                	addi	s0,sp,128
     bbe:	052e                	slli	a0,a0,0xb
     bc0:	4918                	lw	a4,16(a0)
     bc2:	0009                	c.nop	2
     bc4:	fa00                	.insn	2, 0xfa00
     bc6:	000e                	c.slli	zero,0x3
     bc8:	0000                	unimp
     bca:	0000                	unimp
     bcc:	3002                	.insn	2, 0x3002
     bce:	0011                	c.nop	4
     bd0:	1f00                	addi	s0,sp,944
     bd2:	113d                	addi	sp,sp,-17
     bd4:	0000                	unimp
     bd6:	0295                	addi	t0,t0,5
     bd8:	0000                	unimp
     bda:	3101                	jal	7da <core::panicking::panic_bounds_check-0xf8ba>
     bdc:	1c01                	addi	s8,s8,-32
     bde:	3101                	jal	7de <core::panicking::panic_bounds_check-0xf8b6>
     be0:	00001a43          	.insn	4, 0x1a43
     be4:	d910                	sw	a2,48(a0)
     be6:	0100000b          	.insn	4, 0x0100000b
     bea:	ea31                	bnez	a2,c3e <core::panicking::panic_bounds_check-0xf456>
     bec:	000d                	c.nop	3
     bee:	0000                	unimp
     bf0:	be1e                	.insn	2, 0xbe1e
     bf2:	0011                	c.nop	4
     bf4:	0000                	unimp
     bf6:	0001                	nop
     bf8:	9826                	add	a6,a6,s1
     bfa:	0104                	addi	s1,sp,128
     bfc:	1a00                	addi	s0,sp,304
     bfe:	0000                	unimp
     c00:	0100                	addi	s0,sp,128
     c02:	3052                	.insn	2, 0x3052
     c04:	0011                	c.nop	4
     c06:	0100                	addi	s0,sp,128
     c08:	0a12                	slli	s4,s4,0x4
     c0a:	0969                	addi	s2,s2,26
     c0c:	0000                	unimp
     c0e:	0bd9                	addi	s7,s7,22
     c10:	0000                	unimp
     c12:	1201                	addi	tp,tp,-32 # ffffffe0 <__global_pointer$+0xfffedf54>
     c14:	0dea                	slli	s11,s11,0x1a
     c16:	0000                	unimp
     c18:	d112                	sw	tp,160(sp)
     c1a:	9c00000b          	.insn	4, 0x9c00000b
     c1e:	0104                	addi	s1,sp,128
     c20:	1600                	addi	s0,sp,800
     c22:	0000                	unimp
     c24:	0100                	addi	s0,sp,128
     c26:	01230d13          	addi	s10,t1,18
     c2a:	0bdd                	addi	s7,s7,23
     c2c:	0000                	unimp
     c2e:	8418                	.insn	2, 0x8418
     c30:	0009                	c.nop	2
     c32:	e400                	.insn	2, 0xe400
     c34:	1200000b          	.insn	4, 0x1200000b
     c38:	00000f07          	.insn	4, 0x0f07
     c3c:	04a4                	addi	s1,sp,584
     c3e:	0001                	nop
     c40:	000e                	c.slli	zero,0x3
     c42:	0000                	unimp
     c44:	3201                	jal	544 <core::panicking::panic_bounds_check-0xfb50>
     c46:	1805                	addi	a6,a6,-31
     c48:	099f 0000 0f22      	.insn	6, 0x0f220000099f
     c4e:	0000                	unimp
     c50:	0000                	unimp
     c52:	0200                	addi	s0,sp,256
     c54:	0000122b          	.insn	4, 0x122b
     c58:	351f 0012 9500      	.insn	6, 0x95000012351f
     c5e:	0002                	c.slli64	zero
     c60:	0100                	addi	s0,sp,128
     c62:	0135                	addi	sp,sp,13
     c64:	011c                	addi	a5,sp,128
     c66:	5035                	c.li	zero,-19
     c68:	001a                	c.slli	zero,0x6
     c6a:	1000                	addi	s0,sp,32
     c6c:	0bd9                	addi	s7,s7,22
     c6e:	0000                	unimp
     c70:	3501                	jal	a70 <core::panicking::panic_bounds_check-0xf624>
     c72:	0dea                	slli	s11,s11,0x1a
     c74:	0000                	unimp
     c76:	1e00                	addi	s0,sp,816
     c78:	11be                	slli	gp,gp,0x2f
     c7a:	0000                	unimp
     c7c:	0100                	addi	s0,sp,128
     c7e:	2600                	.insn	2, 0x2600
     c80:	04b2                	slli	s1,s1,0xc
     c82:	0001                	nop
     c84:	0022                	c.slli	zero,0x8
     c86:	0000                	unimp
     c88:	5201                	li	tp,-32
     c8a:	0000122b          	.insn	4, 0x122b
     c8e:	1201                	addi	tp,tp,-32 # ffffffe0 <__global_pointer$+0xfffedf54>
     c90:	ce0a                	sw	sp,28(sp)
     c92:	0009                	c.nop	2
     c94:	d900                	sw	s0,48(a0)
     c96:	0100000b          	.insn	4, 0x0100000b
     c9a:	ea12                	.insn	2, 0xea12
     c9c:	000d                	c.nop	3
     c9e:	1200                	addi	s0,sp,288
     ca0:	0c58                	addi	a4,sp,532
     ca2:	0000                	unimp
     ca4:	04b8                	addi	a4,sp,584
     ca6:	0001                	nop
     ca8:	001c                	.insn	2, 0x001c
     caa:	0000                	unimp
     cac:	1301                	addi	t1,t1,-32
     cae:	180d                	addi	a6,a6,-29
     cb0:	09e9                	addi	s3,s3,26
     cb2:	0000                	unimp
     cb4:	0c64                	addi	s1,sp,540
     cb6:	0000                	unimp
     cb8:	0518                	addi	a4,sp,640
     cba:	000a                	c.slli	zero,0x2
     cbc:	6b00                	.insn	2, 0x6b00
     cbe:	000c                	.insn	2, 0x000c
     cc0:	2700                	.insn	2, 0x2700
     cc2:	00000e6b          	.insn	4, 0x0e6b
     cc6:	04b8                	addi	a4,sp,584
     cc8:	0001                	nop
     cca:	0006                	c.slli	zero,0x1
     ccc:	0000                	unimp
     cce:	3601                	jal	7ce <core::panicking::panic_bounds_check-0xf8c6>
     cd0:	1218                	addi	a4,sp,288
     cd2:	00000f07          	.insn	4, 0x0f07
     cd6:	04c6                	slli	s1,s1,0x11
     cd8:	0001                	nop
     cda:	000e                	c.slli	zero,0x3
     cdc:	0000                	unimp
     cde:	3601                	jal	7de <core::panicking::panic_bounds_check-0xf8b6>
     ce0:	1805                	addi	a6,a6,-31
     ce2:	0a20                	addi	s0,sp,280
     ce4:	0000                	unimp
     ce6:	0f22                	slli	t5,t5,0x8
     ce8:	0000                	unimp
     cea:	0000                	unimp
     cec:	2600                	.insn	2, 0x2600
     cee:	04d4                	addi	a3,sp,580
     cf0:	0001                	nop
     cf2:	0030                	addi	a2,sp,8
     cf4:	0000                	unimp
     cf6:	5201                	li	tp,-32
     cf8:	027a                	slli	tp,tp,0x1e
     cfa:	0000                	unimp
     cfc:	1201                	addi	tp,tp,-32 # ffffffe0 <__global_pointer$+0xfffedf54>
     cfe:	4f0a                	lw	t5,128(sp)
     d00:	000a                	c.slli	zero,0x2
     d02:	d900                	sw	s0,48(a0)
     d04:	0100000b          	.insn	4, 0x0100000b
     d08:	ea12                	.insn	2, 0xea12
     d0a:	000d                	c.nop	3
     d0c:	1200                	addi	s0,sp,288
     d0e:	06c9                	addi	a3,a3,18
     d10:	0000                	unimp
     d12:	04de                	slli	s1,s1,0x17
     d14:	0001                	nop
     d16:	001c                	.insn	2, 0x001c
     d18:	0000                	unimp
     d1a:	1301                	addi	t1,t1,-32
     d1c:	230d                	jal	123e <core::panicking::panic_bounds_check-0xee56>
     d1e:	d501                	beqz	a0,c26 <core::panicking::panic_bounds_check-0xf46e>
     d20:	0006                	c.slli	zero,0x1
     d22:	1300                	addi	s0,sp,416
     d24:	5801                	li	a6,-32
     d26:	06dc                	addi	a5,sp,836
     d28:	0000                	unimp
     d2a:	0712                	slli	a4,a4,0x4
     d2c:	f400000f          	.insn	4, 0xf400000f
     d30:	0104                	addi	s1,sp,128
     d32:	0600                	addi	s0,sp,768
     d34:	0000                	unimp
     d36:	0100                	addi	s0,sp,128
     d38:	7518053b          	.insn	4, 0x7518053b
     d3c:	000a                	c.slli	zero,0x2
     d3e:	2200                	.insn	2, 0x2200
     d40:	0000000f          	fence	unknown,unknown
     d44:	0000                	unimp
     d46:	0028                	addi	a0,sp,8
     d48:	0000                	unimp
     d4a:	0800                	addi	s0,sp,16
     d4c:	0000                	unimp
     d4e:	0100                	addi	s0,sp,128
     d50:	6b52                	.insn	2, 0x6b52
     d52:	13000007          	.insn	4, 0x13000007
     d56:	5a01                	li	s4,-32
     d58:	00000773          	.insn	4, 0x0773
     d5c:	2f12                	.insn	2, 0x2f12
     d5e:	00000007          	.insn	4, 0x0007
     d62:	0000                	unimp
     d64:	0800                	addi	s0,sp,16
     d66:	0000                	unimp
     d68:	0100                	addi	s0,sp,128
     d6a:	01230d13          	addi	s10,t1,18
     d6e:	0000073b          	.insn	4, 0x073b
     d72:	425a0113          	addi	sp,s4,1061
     d76:	00000007          	.insn	4, 0x0007
     d7a:	2800                	.insn	2, 0x2800
     d7c:	0000                	unimp
     d7e:	0000                	unimp
     d80:	0008                	.insn	2, 0x0008
     d82:	0000                	unimp
     d84:	5201                	li	tp,-32
     d86:	000007ab          	.insn	4, 0x07ab
     d8a:	b35a0113          	addi	sp,s4,-1227
     d8e:	12000007          	.insn	4, 0x12000007
     d92:	0784                	addi	s1,sp,960
     d94:	0000                	unimp
     d96:	0000                	unimp
     d98:	0000                	unimp
     d9a:	0008                	.insn	2, 0x0008
     d9c:	0000                	unimp
     d9e:	1301                	addi	t1,t1,-32
     da0:	230d                	jal	12c2 <core::panicking::panic_bounds_check-0xedd2>
     da2:	9001                	srli	s0,s0,0x20
     da4:	13000007          	.insn	4, 0x13000007
     da8:	5a01                	li	s4,-32
     daa:	00000797          	auipc	a5,0x0
     dae:	0000                	unimp
     db0:	dc29                	beqz	s0,d0a <core::panicking::panic_bounds_check-0xf38a>
     db2:	0b000013          	li	zero,176
     db6:	0014                	.insn	2, 0x0014
     db8:	0100                	addi	s0,sp,128
     dba:	1610010b          	.insn	4, 0x1610010b
     dbe:	0014                	.insn	2, 0x0014
     dc0:	0100                	addi	s0,sp,128
     dc2:	001a6a0b          	.insn	4, 0x001a6a0b
     dc6:	0000                	unimp
     dc8:	2a00                	.insn	2, 0x2a00
     dca:	0dd6                	slli	s11,s11,0x15
     dcc:	0000                	unimp
     dce:	000e2c2b          	.insn	4, 0x000e2c2b
     dd2:	0000                	unimp
     dd4:	e32c000b          	.insn	4, 0xe32c000b
     dd8:	000d                	c.nop	3
     dda:	3500                	.insn	2, 0x3500
     ddc:	0001                	nop
     dde:	0000                	unimp
     de0:	0000                	unimp
     de2:	2d00                	.insn	2, 0x2d00
     de4:	ea08                	.insn	2, 0xea08
     de6:	000d                	c.nop	3
     de8:	0000                	unimp
     dea:	472c                	lw	a1,72(a4)
     dec:	0000                	unimp
     dee:	ef00                	.insn	2, 0xef00
     df0:	0000                	unimp
     df2:	0000                	unimp
     df4:	0000                	unimp
     df6:	2e00                	.insn	2, 0x2e00
     df8:	0915                	addi	s2,s2,5
     dfa:	0000                	unimp
     dfc:	0405                	addi	s0,s0,1
     dfe:	0000da2f          	.insn	4, 0xda2f
     e02:	0800                	addi	s0,sp,16
     e04:	3004                	.insn	2, 0x3004
     e06:	00c4                	addi	s1,sp,68
     e08:	0000                	unimp
     e0a:	0e1c                	addi	a5,sp,784
     e0c:	0000                	unimp
     e0e:	0004                	.insn	2, 0x0004
     e10:	cd30                	sw	a2,88(a0)
     e12:	0000                	unimp
     e14:	2500                	.insn	2, 0x2500
     e16:	000e                	c.slli	zero,0x3
     e18:	0400                	addi	s0,sp,512
     e1a:	0004                	.insn	2, 0x0004
     e1c:	f731                	bnez	a4,d68 <core::panicking::panic_bounds_check-0xf32c>
     e1e:	000d                	c.nop	3
     e20:	0000                	unimp
     e22:	0000                	unimp
     e24:	2e00                	.insn	2, 0x2e00
     e26:	00d4                	addi	a3,sp,68
     e28:	0000                	unimp
     e2a:	7f320407          	.insn	4, 0x7f320407
     e2e:	0001                	nop
     e30:	0800                	addi	s0,sp,16
     e32:	03282e07          	.insn	4, 0x03282e07
     e36:	0000                	unimp
     e38:	0102                	c.slli64	sp
     e3a:	c12c                	sw	a1,64(a0)
     e3c:	0006                	c.slli	zero,0x1
     e3e:	2d00                	.insn	2, 0x2d00
     e40:	00000003          	lb	zero,0(zero) # 0 <core::panicking::panic_bounds_check-0x10094>
     e44:	0000                	unimp
     e46:	2c00                	.insn	2, 0x2c00
     e48:	00000df7          	.insn	4, 0x0df7
     e4c:	037e                	slli	t1,t1,0x1f
     e4e:	0000                	unimp
     e50:	0000                	unimp
     e52:	0000                	unimp
     e54:	272c                	.insn	2, 0x272c
     e56:	07000007          	.insn	4, 0x07000007
     e5a:	0004                	.insn	2, 0x0004
     e5c:	0000                	unimp
     e5e:	0000                	unimp
     e60:	0200                	addi	s0,sp,256
     e62:	0249                	addi	tp,tp,18 # 12 <core::panicking::panic_bounds_check-0x10082>
     e64:	0000                	unimp
     e66:	4d02                	lw	s10,0(sp)
     e68:	0004                	.insn	2, 0x0004
     e6a:	3300                	.insn	2, 0x3300
     e6c:	0452                	slli	s0,s0,0x14
     e6e:	0000                	unimp
     e70:	047e                	slli	s0,s0,0x1f
     e72:	0000                	unimp
     e74:	f701e103          	.insn	4, 0xf701e103
     e78:	000d                	c.nop	3
     e7a:	0100                	addi	s0,sp,128
     e7c:	f705                	bnez	a4,da4 <core::panicking::panic_bounds_check-0xf2f0>
     e7e:	000d                	c.nop	3
     e80:	c200                	sw	s0,0(a2)
     e82:	0000                	unimp
     e84:	3400                	.insn	2, 0x3400
     e86:	048d                	addi	s1,s1,3
     e88:	0000                	unimp
     e8a:	f701e103          	.insn	4, 0xf701e103
     e8e:	000d                	c.nop	3
     e90:	0000                	unimp
     e92:	000d2533          	sltz	a0,s10
     e96:	5100                	lw	s0,32(a0)
     e98:	000d                	c.nop	3
     e9a:	0300                	addi	s0,sp,384
     e9c:	01e1                	addi	gp,gp,24 # 120a4 <__global_pointer$+0x18>
     e9e:	0e25                	addi	t3,t3,9
     ea0:	0000                	unimp
     ea2:	0501                	addi	a0,a0,0 # fffe0000 <__global_pointer$+0xfffcdf74>
     ea4:	0e25                	addi	t3,t3,9
     ea6:	0000                	unimp
     ea8:	00c2                	slli	ra,ra,0x10
     eaa:	0000                	unimp
     eac:	8d34                	.insn	2, 0x8d34
     eae:	0004                	.insn	2, 0x0004
     eb0:	0300                	addi	s0,sp,384
     eb2:	01e1                	addi	gp,gp,24 # 120a4 <__global_pointer$+0x18>
     eb4:	0e25                	addi	t3,t3,9
     eb6:	0000                	unimp
     eb8:	3300                	.insn	2, 0x3300
     eba:	0e06                	slli	t3,t3,0x1
     ebc:	0000                	unimp
     ebe:	0e32                	slli	t3,t3,0xc
     ec0:	0000                	unimp
     ec2:	f201e103          	.insn	4, 0xf201e103
     ec6:	01000017          	auipc	zero,0x1000
     eca:	f205                	bnez	a2,dea <core::panicking::panic_bounds_check-0xf2aa>
     ecc:	c2000017          	auipc	zero,0xc2000
     ed0:	0000                	unimp
     ed2:	3400                	.insn	2, 0x3400
     ed4:	048d                	addi	s1,s1,3
     ed6:	0000                	unimp
     ed8:	f201e103          	.insn	4, 0xf201e103
     edc:	00000017          	auipc	zero,0x0
     ee0:	000f2733          	sltz	a4,t5
     ee4:	5300                	lw	s0,32(a4)
     ee6:	0300000f          	fence	rw,unknown
     eea:	01e1                	addi	gp,gp,24 # 120a4 <__global_pointer$+0x18>
     eec:	00000e33          	add	t3,zero,zero
     ef0:	0501                	addi	a0,a0,0
     ef2:	00000e33          	add	t3,zero,zero
     ef6:	00c2                	slli	ra,ra,0x10
     ef8:	0000                	unimp
     efa:	8d34                	.insn	2, 0x8d34
     efc:	0004                	.insn	2, 0x0004
     efe:	0300                	addi	s0,sp,384
     f00:	01e1                	addi	gp,gp,24 # 120a4 <__global_pointer$+0x18>
     f02:	00000e33          	add	t3,zero,zero
     f06:	3500                	.insn	2, 0x3500
     f08:	11da                	slli	gp,gp,0x36
     f0a:	0000                	unimp
     f0c:	1206                	slli	tp,tp,0x21
     f0e:	0000                	unimp
     f10:	0301e103          	.insn	4, 0x0301e103
     f14:	10b9                	addi	ra,ra,-18
     f16:	0000                	unimp
     f18:	0501                	addi	a0,a0,0
     f1a:	10b9                	addi	ra,ra,-18
     f1c:	0000                	unimp
     f1e:	00c2                	slli	ra,ra,0x10
     f20:	0000                	unimp
     f22:	8d34                	.insn	2, 0x8d34
     f24:	0004                	.insn	2, 0x0004
     f26:	0300                	addi	s0,sp,384
     f28:	01e1                	addi	gp,gp,24 # 120a4 <__global_pointer$+0x18>
     f2a:	10b9                	addi	ra,ra,-18
     f2c:	0000                	unimp
     f2e:	0000                	unimp
     f30:	9302                	jalr	t1
     f32:	0004                	.insn	2, 0x0004
     f34:	0200                	addi	s0,sp,256
     f36:	00000497          	auipc	s1,0x0
     f3a:	0004a133          	sltz	sp,s1
     f3e:	eb00                	.insn	2, 0xeb00
     f40:	0004                	.insn	2, 0x0004
     f42:	0400                	addi	s0,sp,512
     f44:	0e2507ab          	.insn	4, 0x0e2507ab
     f48:	0000                	unimp
     f4a:	3401                	jal	94a <core::panicking::panic_bounds_check-0xf74a>
     f4c:	04fa                	slli	s1,s1,0x1e
     f4e:	0000                	unimp
     f50:	ab04                	.insn	2, 0xab04
     f52:	000e2507          	.insn	4, 0x000e2507
     f56:	3400                	.insn	2, 0x3400
     f58:	04ff 0000 ab04 2507 	.insn	10, 0x000e2507ab04000004ff
     f60:	000e 
     f62:	0000                	unimp
     f64:	00063033          	sltu	zero,a2,zero
     f68:	7700                	.insn	2, 0x7700
     f6a:	0006                	c.slli	zero,0x1
     f6c:	0400                	addi	s0,sp,512
     f6e:	02a0                	addi	s0,sp,328
     f70:	0f95                	addi	t6,t6,5
     f72:	0000                	unimp
     f74:	3401                	jal	974 <core::panicking::panic_bounds_check-0xf720>
     f76:	04fa                	slli	s1,s1,0x1e
     f78:	0000                	unimp
     f7a:	a004                	.insn	2, 0xa004
     f7c:	2502                	.insn	2, 0x2502
     f7e:	000e                	c.slli	zero,0x3
     f80:	3400                	.insn	2, 0x3400
     f82:	04ff 0000 a004 2502 	.insn	10, 0x000e2502a004000004ff
     f8a:	000e 
     f8c:	0000                	unimp
     f8e:	0000                	unimp
     f90:	8302                	jr	t1
     f92:	0006                	c.slli	zero,0x1
     f94:	0400                	addi	s0,sp,512
     f96:	069c                	addi	a5,sp,832
     f98:	0000                	unimp
     f9a:	0108                	addi	a0,sp,128
     f9c:	3604                	.insn	2, 0x3604
     f9e:	0fa2                	slli	t6,t6,0x8
     fa0:	0000                	unimp
     fa2:	00178437          	lui	s0,0x178
     fa6:	0400                	addi	s0,sp,512
     fa8:	3800                	.insn	2, 0x3800
     faa:	3000                	.insn	2, 0x3000
     fac:	068e                	slli	a3,a3,0x3
     fae:	0000                	unimp
     fb0:	0fc6                	slli	t6,t6,0x11
     fb2:	0000                	unimp
     fb4:	0004                	.insn	2, 0x0004
     fb6:	3800                	.insn	2, 0x3800
     fb8:	3001                	jal	7b8 <core::panicking::panic_bounds_check-0xf8dc>
     fba:	00000693          	li	a3,0
     fbe:	0fd8                	addi	a4,sp,980
     fc0:	0000                	unimp
     fc2:	0004                	.insn	2, 0x0004
     fc4:	0000                	unimp
     fc6:	8e04                	.insn	2, 0x8e04
     fc8:	0006                	c.slli	zero,0x1
     fca:	0800                	addi	s0,sp,16
     fcc:	0401                	addi	s0,s0,0 # 178000 <__global_pointer$+0x165f74>
     fce:	2505                	jal	15ee <core::panicking::panic_bounds_check-0xeaa6>
     fd0:	000e                	c.slli	zero,0x3
     fd2:	c200                	sw	s0,0(a2)
     fd4:	0000                	unimp
     fd6:	0000                	unimp
     fd8:	9304                	.insn	2, 0x9304
     fda:	0006                	c.slli	zero,0x1
     fdc:	0800                	addi	s0,sp,16
     fde:	0401                	addi	s0,s0,0
     fe0:	2505                	jal	1600 <core::panicking::panic_bounds_check-0xea94>
     fe2:	000e                	c.slli	zero,0x3
     fe4:	c200                	sw	s0,0(a2)
     fe6:	0000                	unimp
     fe8:	0600                	addi	s0,sp,768
     fea:	0698                	addi	a4,sp,832
     fec:	0000                	unimp
     fee:	0e25                	addi	t3,t3,9
     ff0:	0000                	unimp
     ff2:	0404                	addi	s1,sp,512
     ff4:	0001                	nop
     ff6:	0400                	addi	s0,sp,512
     ff8:	0a10                	addi	a2,sp,272
     ffa:	0000                	unimp
     ffc:	0110                	addi	a2,sp,128
     ffe:	3604                	.insn	2, 0x3604
    1000:	1004                	addi	s1,sp,32
    1002:	0000                	unimp
    1004:	00178437          	lui	s0,0x178
    1008:	0400                	addi	s0,sp,512
    100a:	3800                	.insn	2, 0x3800
    100c:	3000                	.insn	2, 0x3000
    100e:	068e                	slli	a3,a3,0x3
    1010:	0000                	unimp
    1012:	00001027          	.insn	4, 0x1027
    1016:	0004                	.insn	2, 0x0004
    1018:	3900                	.insn	2, 0x3900
    101a:	9330                	.insn	2, 0x9330
    101c:	0006                	c.slli	zero,0x1
    101e:	3900                	.insn	2, 0x3900
    1020:	0010                	.insn	2, 0x0010
    1022:	0400                	addi	s0,sp,512
    1024:	0000                	unimp
    1026:	0400                	addi	s0,sp,512
    1028:	068e                	slli	a3,a3,0x3
    102a:	0000                	unimp
    102c:	0110                	addi	a2,sp,128
    102e:	0504                	addi	s1,sp,640
    1030:	17d4                	addi	a3,sp,996
    1032:	0000                	unimp
    1034:	00c2                	slli	ra,ra,0x10
    1036:	0000                	unimp
    1038:	0400                	addi	s0,sp,512
    103a:	00000693          	li	a3,0
    103e:	0110                	addi	a2,sp,128
    1040:	0504                	addi	s1,sp,640
    1042:	17d4                	addi	a3,sp,996
    1044:	0000                	unimp
    1046:	00c2                	slli	ra,ra,0x10
    1048:	0000                	unimp
    104a:	9806                	add	a6,a6,ra
    104c:	0006                	c.slli	zero,0x1
    104e:	d400                	sw	s0,40(s0)
    1050:	04000017          	auipc	zero,0x4000
    1054:	0100                	addi	s0,sp,128
    1056:	0000                	unimp
    1058:	fe04                	.insn	2, 0xfe04
    105a:	000a                	c.slli	zero,0x2
    105c:	0800                	addi	s0,sp,16
    105e:	0401                	addi	s0,s0,0 # 178000 <__global_pointer$+0x165f74>
    1060:	6536                	.insn	2, 0x6536
    1062:	0010                	.insn	2, 0x0010
    1064:	3700                	.insn	2, 0x3700
    1066:	1784                	addi	s1,sp,992
    1068:	0000                	unimp
    106a:	0004                	.insn	2, 0x0004
    106c:	0038                	addi	a4,sp,8
    106e:	8e30                	.insn	2, 0x8e30
    1070:	0006                	c.slli	zero,0x1
    1072:	8800                	.insn	2, 0x8800
    1074:	0010                	.insn	2, 0x0010
    1076:	0400                	addi	s0,sp,512
    1078:	0000                	unimp
    107a:	3039                	jal	888 <core::panicking::panic_bounds_check-0xf80c>
    107c:	00000693          	li	a3,0
    1080:	109a                	slli	ra,ra,0x26
    1082:	0000                	unimp
    1084:	0004                	.insn	2, 0x0004
    1086:	0000                	unimp
    1088:	8e04                	.insn	2, 0x8e04
    108a:	0006                	c.slli	zero,0x1
    108c:	0800                	addi	s0,sp,16
    108e:	0401                	addi	s0,s0,0
    1090:	8b05                	andi	a4,a4,1
    1092:	c2000017          	auipc	zero,0xc2000
    1096:	0000                	unimp
    1098:	0000                	unimp
    109a:	9304                	.insn	2, 0x9304
    109c:	0006                	c.slli	zero,0x1
    109e:	0800                	addi	s0,sp,16
    10a0:	0401                	addi	s0,s0,0
    10a2:	8b05                	andi	a4,a4,1
    10a4:	c2000017          	auipc	zero,0xc2000
    10a8:	0000                	unimp
    10aa:	0600                	addi	s0,sp,768
    10ac:	0698                	addi	a4,sp,832
    10ae:	0000                	unimp
    10b0:	0000178b          	.insn	4, 0x178b
    10b4:	0004                	.insn	2, 0x0004
    10b6:	0001                	nop
    10b8:	0400                	addi	s0,sp,512
    10ba:	11ce                	slli	gp,gp,0x33
    10bc:	0000                	unimp
    10be:	0108                	addi	a0,sp,128
    10c0:	3604                	.insn	2, 0x3604
    10c2:	10c6                	slli	ra,ra,0x31
    10c4:	0000                	unimp
    10c6:	00178437          	lui	s0,0x178
    10ca:	0400                	addi	s0,sp,512
    10cc:	3800                	.insn	2, 0x3800
    10ce:	3000                	.insn	2, 0x3000
    10d0:	068e                	slli	a3,a3,0x3
    10d2:	0000                	unimp
    10d4:	10ea                	slli	ra,ra,0x3a
    10d6:	0000                	unimp
    10d8:	0004                	.insn	2, 0x0004
    10da:	3800                	.insn	2, 0x3800
    10dc:	3001                	jal	8dc <core::panicking::panic_bounds_check-0xf7b8>
    10de:	00000693          	li	a3,0
    10e2:	10fc                	addi	a5,sp,108
    10e4:	0000                	unimp
    10e6:	0004                	.insn	2, 0x0004
    10e8:	0000                	unimp
    10ea:	8e04                	.insn	2, 0x8e04
    10ec:	0006                	c.slli	zero,0x1
    10ee:	0800                	addi	s0,sp,16
    10f0:	0401                	addi	s0,s0,0 # 178000 <__global_pointer$+0x165f74>
    10f2:	f705                	bnez	a4,101a <core::panicking::panic_bounds_check-0xf07a>
    10f4:	000d                	c.nop	3
    10f6:	c200                	sw	s0,0(a2)
    10f8:	0000                	unimp
    10fa:	0000                	unimp
    10fc:	9304                	.insn	2, 0x9304
    10fe:	0006                	c.slli	zero,0x1
    1100:	0800                	addi	s0,sp,16
    1102:	0401                	addi	s0,s0,0
    1104:	f705                	bnez	a4,102c <core::panicking::panic_bounds_check-0xf068>
    1106:	000d                	c.nop	3
    1108:	c200                	sw	s0,0(a2)
    110a:	0000                	unimp
    110c:	0600                	addi	s0,sp,768
    110e:	0698                	addi	a4,sp,832
    1110:	0000                	unimp
    1112:	00000df7          	.insn	4, 0x0df7
    1116:	0404                	addi	s1,sp,512
    1118:	0001                	nop
    111a:	0400                	addi	s0,sp,512
    111c:	149f 0000 0108      	.insn	6, 0x01080000149f
    1122:	3604                	.insn	2, 0x3604
    1124:	1128                	addi	a0,sp,168
    1126:	0000                	unimp
    1128:	00178437          	lui	s0,0x178
    112c:	0400                	addi	s0,sp,512
    112e:	3800                	.insn	2, 0x3800
    1130:	3000                	.insn	2, 0x3000
    1132:	068e                	slli	a3,a3,0x3
    1134:	0000                	unimp
    1136:	0000114b          	.insn	4, 0x114b
    113a:	0004                	.insn	2, 0x0004
    113c:	3900                	.insn	2, 0x3900
    113e:	9330                	.insn	2, 0x9330
    1140:	0006                	c.slli	zero,0x1
    1142:	5d00                	lw	s0,56(a0)
    1144:	0011                	c.nop	4
    1146:	0400                	addi	s0,sp,512
    1148:	0000                	unimp
    114a:	0400                	addi	s0,sp,512
    114c:	068e                	slli	a3,a3,0x3
    114e:	0000                	unimp
    1150:	0108                	addi	a0,sp,128
    1152:	0504                	addi	s1,sp,640
    1154:	1ad9                	addi	s5,s5,-10
    1156:	0000                	unimp
    1158:	00c2                	slli	ra,ra,0x10
    115a:	0000                	unimp
    115c:	0400                	addi	s0,sp,512
    115e:	00000693          	li	a3,0
    1162:	0108                	addi	a0,sp,128
    1164:	0504                	addi	s1,sp,640
    1166:	1ad9                	addi	s5,s5,-10
    1168:	0000                	unimp
    116a:	00c2                	slli	ra,ra,0x10
    116c:	0000                	unimp
    116e:	9806                	add	a6,a6,ra
    1170:	0006                	c.slli	zero,0x1
    1172:	d900                	sw	s0,48(a0)
    1174:	001a                	c.slli	zero,0x6
    1176:	0400                	addi	s0,sp,512
    1178:	0100                	addi	s0,sp,128
    117a:	0000                	unimp
    117c:	0200                	addi	s0,sp,256
    117e:	06aa                	slli	a3,a3,0xa
    1180:	0000                	unimp
    1182:	b002                	.insn	2, 0xb002
    1184:	0006                	c.slli	zero,0x1
    1186:	0200                	addi	s0,sp,256
    1188:	06b6                	slli	a3,a3,0xd
    118a:	0000                	unimp
    118c:	0006bf33          	sltu	t5,a3,zero
    1190:	4a00                	lw	s0,16(a2)
    1192:	05000007          	.insn	4, 0x05000007
    1196:	01b5                	addi	gp,gp,13 # 12099 <__global_pointer$+0xd>
    1198:	0000178b          	.insn	4, 0x178b
    119c:	0501                	addi	a0,a0,0
    119e:	00000df7          	.insn	4, 0x0df7
    11a2:	00c2                	slli	ra,ra,0x10
    11a4:	0000                	unimp
    11a6:	fa34                	.insn	2, 0xfa34
    11a8:	0004                	.insn	2, 0x0004
    11aa:	0500                	addi	s0,sp,640
    11ac:	01b5                	addi	gp,gp,13 # 12099 <__global_pointer$+0xd>
    11ae:	1321                	addi	t1,t1,-24
    11b0:	0000                	unimp
    11b2:	aa34                	.insn	2, 0xaa34
    11b4:	0006                	c.slli	zero,0x1
    11b6:	0500                	addi	s0,sp,640
    11b8:	01b5                	addi	gp,gp,13 # 12099 <__global_pointer$+0xd>
    11ba:	0000178b          	.insn	4, 0x178b
    11be:	3a1d                	jal	af4 <core::panicking::panic_bounds_check-0xf5a0>
    11c0:	0000077b          	.insn	4, 0x077b
    11c4:	0504                	addi	s1,sp,640
    11c6:	0e2501b7          	lui	gp,0xe250
    11ca:	0000                	unimp
    11cc:	0000                	unimp
    11ce:	0200                	addi	s0,sp,256
    11d0:	00000783          	lb	a5,0(zero) # 0 <core::panicking::panic_bounds_check-0x10094>
    11d4:	00078e1b          	.insn	4, 0x00078e1b
    11d8:	0900                	addi	s0,sp,144
    11da:	0008                	.insn	2, 0x0008
    11dc:	0500                	addi	s0,sp,640
    11de:	8b11                	andi	a4,a4,4
    11e0:	01000017          	auipc	zero,0x1000
    11e4:	f705                	bnez	a4,110c <core::panicking::panic_bounds_check-0xef88>
    11e6:	000d                	c.nop	3
    11e8:	c200                	sw	s0,0(a2)
    11ea:	0000                	unimp
    11ec:	0500                	addi	s0,sp,640
    11ee:	1321                	addi	t1,t1,-24
    11f0:	0000                	unimp
    11f2:	078c                	addi	a1,sp,960
    11f4:	0000                	unimp
    11f6:	fa10                	.insn	2, 0xfa10
    11f8:	0004                	.insn	2, 0x0004
    11fa:	0500                	addi	s0,sp,640
    11fc:	8b11                	andi	a4,a4,4
    11fe:	10000017          	auipc	zero,0x10000
    1202:	06b0                	addi	a2,sp,840
    1204:	0000                	unimp
    1206:	1105                	addi	sp,sp,-31
    1208:	1321                	addi	t1,t1,-24
    120a:	0000                	unimp
    120c:	0000                	unimp
    120e:	0008341b          	.insn	4, 0x0008341b
    1212:	7700                	.insn	2, 0x7700
    1214:	0008                	.insn	2, 0x0008
    1216:	0500                	addi	s0,sp,640
    1218:	a95a                	.insn	2, 0xa95a
    121a:	01000017          	auipc	zero,0x1000
    121e:	f705                	bnez	a4,1146 <core::panicking::panic_bounds_check-0xef4e>
    1220:	000d                	c.nop	3
    1222:	c200                	sw	s0,0(a2)
    1224:	0000                	unimp
    1226:	1000                	addi	s0,sp,32
    1228:	00c9                	addi	ra,ra,18
    122a:	0000                	unimp
    122c:	5b05                	li	s6,-31
    122e:	0000178b          	.insn	4, 0x178b
    1232:	a210                	.insn	2, 0xa210
    1234:	0008                	.insn	2, 0x0008
    1236:	0500                	addi	s0,sp,640
    1238:	255c                	.insn	2, 0x255c
    123a:	000e                	c.slli	zero,0x3
    123c:	1000                	addi	s0,sp,32
    123e:	0c84                	addi	s1,sp,592
    1240:	0000                	unimp
    1242:	5d05                	li	s10,-31
    1244:	0e25                	addi	t3,t3,9
    1246:	0000                	unimp
    1248:	0000                	unimp
    124a:	8302                	jr	t1
    124c:	33000007          	.insn	4, 0x33000007
    1250:	091f 0000 0975      	.insn	6, 0x09750000091f
    1256:	0000                	unimp
    1258:	d407f007          	.insn	4, 0xd407f007
    125c:	01000017          	auipc	zero,0x1000
    1260:	f705                	bnez	a4,1188 <core::panicking::panic_bounds_check-0xef0c>
    1262:	000d                	c.nop	3
    1264:	c200                	sw	s0,0(a2)
    1266:	0000                	unimp
    1268:	3400                	.insn	2, 0x3400
    126a:	04fa                	slli	s1,s1,0x1e
    126c:	0000                	unimp
    126e:	8b07f007          	.insn	4, 0x8b07f007
    1272:	34000017          	auipc	zero,0x34000
    1276:	09a2                	slli	s3,s3,0x8
    1278:	0000                	unimp
    127a:	2507f007          	.insn	4, 0x2507f007
    127e:	000e                	c.slli	zero,0x3
    1280:	1d00                	addi	s0,sp,688
    1282:	843a                	mv	s0,a4
    1284:	000c                	.insn	2, 0x000c
    1286:	0400                	addi	s0,sp,512
    1288:	2507f507          	.insn	4, 0x2507f507
    128c:	000e                	c.slli	zero,0x3
    128e:	1d00                	addi	s0,sp,688
    1290:	c93a                	sw	a4,144(sp)
    1292:	0000                	unimp
    1294:	0400                	addi	s0,sp,512
    1296:	c707f607          	.insn	4, 0xc707f607
    129a:	00000017          	auipc	zero,0x0
    129e:	0000                	unimp
    12a0:	0009a633          	sltz	a2,s3
    12a4:	fa00                	.insn	2, 0xfa00
    12a6:	0009                	c.nop	2
    12a8:	0700                	addi	s0,sp,896
    12aa:	0ff70863          	beq	a4,t6,139a <core::panicking::panic_bounds_check-0xecfa>
    12ae:	0000                	unimp
    12b0:	0501                	addi	a0,a0,0
    12b2:	00000df7          	.insn	4, 0x0df7
    12b6:	00c2                	slli	ra,ra,0x10
    12b8:	0000                	unimp
    12ba:	fa34                	.insn	2, 0xfa34
    12bc:	0004                	.insn	2, 0x0004
    12be:	0700                	addi	s0,sp,896
    12c0:	178b0863          	beq	s6,s8,1430 <core::panicking::panic_bounds_check-0xec64>
    12c4:	0000                	unimp
    12c6:	a234                	.insn	2, 0xa234
    12c8:	0009                	c.nop	2
    12ca:	0700                	addi	s0,sp,896
    12cc:	0e250863          	beq	a0,sp,13bc <core::panicking::panic_bounds_check-0xecd8>
    12d0:	0000                	unimp
    12d2:	3300                	.insn	2, 0x3300
    12d4:	0a29                	addi	s4,s4,10
    12d6:	0000                	unimp
    12d8:	0a74                	addi	a3,sp,284
    12da:	0000                	unimp
    12dc:	d4079a07          	.insn	4, 0xd4079a07
    12e0:	01000017          	auipc	zero,0x1000
    12e4:	f705                	bnez	a4,120c <core::panicking::panic_bounds_check-0xee88>
    12e6:	000d                	c.nop	3
    12e8:	c200                	sw	s0,0(a2)
    12ea:	0000                	unimp
    12ec:	3400                	.insn	2, 0x3400
    12ee:	04fa                	slli	s1,s1,0x1e
    12f0:	0000                	unimp
    12f2:	8b079a07          	.insn	4, 0x8b079a07
    12f6:	34000017          	auipc	zero,0x34000
    12fa:	09a2                	slli	s3,s3,0x8
    12fc:	0000                	unimp
    12fe:	25079a07          	.insn	4, 0x25079a07
    1302:	000e                	c.slli	zero,0x3
    1304:	1d00                	addi	s0,sp,688
    1306:	823a                	mv	tp,a4
    1308:	000a                	c.slli	zero,0x2
    130a:	0400                	addi	s0,sp,512
    130c:	d4079c07          	.insn	4, 0xd4079c07
    1310:	00000017          	auipc	zero,0x0
    1314:	0000                	unimp
    1316:	0200                	addi	s0,sp,256
    1318:	075c                	addi	a5,sp,900
    131a:	0000                	unimp
    131c:	6002                	.insn	2, 0x6002
    131e:	04000007          	.insn	4, 0x04000007
    1322:	076e                	slli	a4,a4,0x1b
    1324:	0000                	unimp
    1326:	0108                	addi	a0,sp,128
    1328:	0504                	addi	s1,sp,640
    132a:	0e25                	addi	t3,t3,9
    132c:	0000                	unimp
    132e:	0766                	slli	a4,a4,0x19
    1330:	0000                	unimp
    1332:	8906                	mv	s2,ra
    1334:	001e                	c.slli	zero,0x7
    1336:	2500                	.insn	2, 0x2500
    1338:	000e                	c.slli	zero,0x3
    133a:	0400                	addi	s0,sp,512
    133c:	0100                	addi	s0,sp,128
    133e:	6a06                	.insn	2, 0x6a06
    1340:	25000007          	.insn	4, 0x25000007
    1344:	000e                	c.slli	zero,0x3
    1346:	0400                	addi	s0,sp,512
    1348:	0104                	addi	s1,sp,128
    134a:	0000                	unimp
    134c:	0200                	addi	s0,sp,256
    134e:	00c9                	addi	ra,ra,18
    1350:	0000                	unimp
    1352:	a902                	.insn	2, 0xa902
    1354:	0008                	.insn	2, 0x0008
    1356:	0200                	addi	s0,sp,256
    1358:	00000783          	lb	a5,0(zero) # 0 <core::panicking::panic_bounds_check-0x10094>
    135c:	0008b333          	sltu	t1,a7,zero
    1360:	0500                	addi	s0,sp,640
    1362:	0009                	c.nop	2
    1364:	0600                	addi	s0,sp,768
    1366:	0371                	addi	t1,t1,28
    1368:	000017c7          	.insn	4, 0x17c7
    136c:	0501                	addi	a0,a0,0
    136e:	00000df7          	.insn	4, 0x0df7
    1372:	00c2                	slli	ra,ra,0x10
    1374:	0000                	unimp
    1376:	fa34                	.insn	2, 0xfa34
    1378:	0004                	.insn	2, 0x0004
    137a:	0600                	addi	s0,sp,768
    137c:	0371                	addi	t1,t1,28
    137e:	000017c7          	.insn	4, 0x17c7
    1382:	1934                	addi	a3,sp,184
    1384:	0009                	c.nop	2
    1386:	0600                	addi	s0,sp,768
    1388:	0371                	addi	t1,t1,28
    138a:	0e25                	addi	t3,t3,9
    138c:	0000                	unimp
    138e:	0000                	unimp
    1390:	0200                	addi	s0,sp,256
    1392:	14d0                	addi	a2,sp,612
    1394:	0000                	unimp
    1396:	eb04                	.insn	2, 0xeb04
    1398:	0014                	.insn	2, 0x0014
    139a:	0400                	addi	s0,sp,512
    139c:	0401                	addi	s0,s0,0 # 178000 <__global_pointer$+0x165f74>
    139e:	2e05                	jal	16ce <core::panicking::panic_bounds_check-0xe9c6>
    13a0:	c200001b          	.insn	4, 0xc200001b
    13a4:	0000                	unimp
    13a6:	0600                	addi	s0,sp,768
    13a8:	14d9                	addi	s1,s1,-10 # f2c <core::panicking::panic_bounds_check-0xf168>
    13aa:	0000                	unimp
    13ac:	1b35                	addi	s6,s6,-19
    13ae:	0000                	unimp
    13b0:	0004                	.insn	2, 0x0004
    13b2:	6c040003          	lb	zero,1728(s0)
    13b6:	0016                	c.slli	zero,0x5
    13b8:	0800                	addi	s0,sp,16
    13ba:	0401                	addi	s0,s0,0
    13bc:	d205                	beqz	a2,12dc <core::panicking::panic_bounds_check-0xedb8>
    13be:	001a                	c.slli	zero,0x6
    13c0:	c200                	sw	s0,0(a2)
    13c2:	0000                	unimp
    13c4:	0600                	addi	s0,sp,768
    13c6:	14d9                	addi	s1,s1,-10
    13c8:	0000                	unimp
    13ca:	1bce                	slli	s7,s7,0x33
    13cc:	0000                	unimp
    13ce:	0004                	.insn	2, 0x0004
    13d0:	00000003          	lb	zero,0(zero) # 0 <core::panicking::panic_bounds_check-0x10094>
    13d4:	0b02                	c.slli64	s6
    13d6:	0014                	.insn	2, 0x0014
    13d8:	0200                	addi	s0,sp,256
    13da:	1411                	addi	s0,s0,-28
    13dc:	0000                	unimp
    13de:	f704                	.insn	2, 0xf704
    13e0:	0016                	c.slli	zero,0x5
    13e2:	0c00                	addi	s0,sp,528
    13e4:	0401                	addi	s0,s0,0
    13e6:	1c06                	slli	s8,s8,0x21
    13e8:	0014                	.insn	2, 0x0014
    13ea:	7700                	.insn	2, 0x7700
    13ec:	001a                	c.slli	zero,0x6
    13ee:	0400                	addi	s0,sp,512
    13f0:	0300                	addi	s0,sp,384
    13f2:	5806                	lw	a6,96(sp)
    13f4:	0016                	c.slli	zero,0x5
    13f6:	c100                	sw	s0,0(a0)
    13f8:	0400001b          	.insn	4, 0x0400001b
    13fc:	0304                	addi	s1,sp,384
    13fe:	bf06                	.insn	2, 0xbf06
    1400:	0016                	c.slli	zero,0x5
    1402:	3300                	.insn	2, 0x3300
    1404:	000e                	c.slli	zero,0x3
    1406:	0100                	addi	s0,sp,128
    1408:	0308                	addi	a0,sp,384
    140a:	ca06                	sw	ra,20(sp)
    140c:	0016                	c.slli	zero,0x5
    140e:	3300                	.insn	2, 0x3300
    1410:	000e                	c.slli	zero,0x3
    1412:	0100                	addi	s0,sp,128
    1414:	0309                	addi	t1,t1,2
    1416:	0000                	unimp
    1418:	5802                	lw	a6,32(sp)
    141a:	0016                	c.slli	zero,0x5
    141c:	0400                	addi	s0,sp,512
    141e:	16b6                	slli	a3,a3,0x2d
    1420:	0000                	unimp
    1422:	0110                	addi	a2,sp,128
    1424:	0604                	addi	s1,sp,768
    1426:	00001683          	lh	a3,0(zero) # 0 <core::panicking::panic_bounds_check-0x10094>
    142a:	13b4                	addi	a3,sp,488
    142c:	0000                	unimp
    142e:	0004                	.insn	2, 0x0004
    1430:	16790603          	lb	a2,359(s2)
    1434:	0000                	unimp
    1436:	1784                	addi	s1,sp,992
    1438:	0000                	unimp
    143a:	0804                	addi	s1,sp,16
    143c:	167e0603          	lb	a2,359(t3)
    1440:	0000                	unimp
    1442:	1784                	addi	s1,sp,992
    1444:	0000                	unimp
    1446:	0c04                	addi	s1,sp,528
    1448:	16820603          	lb	a2,360(tp) # 168 <core::panicking::panic_bounds_check-0xff2c>
    144c:	0000                	unimp
    144e:	000016b7          	lui	a3,0x1
    1452:	1001                	c.nop	-32
    1454:	00000003          	lb	zero,0(zero) # 0 <core::panicking::panic_bounds_check-0x10094>
    1458:	2b02                	.insn	2, 0x2b02
    145a:	001f 0400 164e      	.insn	6, 0x164e0400001f
    1460:	0000                	unimp
    1462:	0118                	addi	a4,sp,128
    1464:	0604                	addi	s1,sp,768
    1466:	1424                	addi	s1,sp,552
    1468:	0000                	unimp
    146a:	1a84                	addi	s1,sp,368
    146c:	0000                	unimp
    146e:	0004                	.insn	2, 0x0004
    1470:	1f2b0603          	lb	a2,498(s6)
    1474:	0000                	unimp
    1476:	0000111b          	.insn	4, 0x111b
    147a:	1004                	addi	s1,sp,32
    147c:	14c50603          	lb	a2,332(a0)
    1480:	0000                	unimp
    1482:	00001b07          	.insn	4, 0x1b07
    1486:	0804                	addi	s1,sp,16
    1488:	8c020003          	lb	zero,-1856(tp) # fffff8c0 <__global_pointer$+0xfffed834>
    148c:	001e                	c.slli	zero,0x7
    148e:	0400                	addi	s0,sp,512
    1490:	1475                	addi	s0,s0,-3
    1492:	0000                	unimp
    1494:	0118                	addi	a4,sp,128
    1496:	0604                	addi	s1,sp,768
    1498:	0000143b          	.insn	4, 0x143b
    149c:	0e25                	addi	t3,t3,9
    149e:	0000                	unimp
    14a0:	1004                	addi	s1,sp,32
    14a2:	0601                	addi	a2,a2,0
    14a4:	1444                	addi	s1,sp,548
    14a6:	0000                	unimp
    14a8:	1784                	addi	s1,sp,992
    14aa:	0000                	unimp
    14ac:	1404                	addi	s1,sp,544
    14ae:	0601                	addi	a2,a2,0
    14b0:	144a                	slli	s0,s0,0x32
    14b2:	0000                	unimp
    14b4:	14c8                	addi	a0,sp,612
    14b6:	0000                	unimp
    14b8:	0004                	.insn	2, 0x0004
    14ba:	0601                	addi	a2,a2,0
    14bc:	0000146f          	jal	s0,24bc <core::panicking::panic_bounds_check-0xdbd8>
    14c0:	14c8                	addi	a0,sp,612
    14c2:	0000                	unimp
    14c4:	0804                	addi	s1,sp,16
    14c6:	0001                	nop
    14c8:	6904                	.insn	2, 0x6904
    14ca:	0014                	.insn	2, 0x0014
    14cc:	0800                	addi	s0,sp,16
    14ce:	0401                	addi	s0,s0,0
    14d0:	d536                	sw	a3,168(sp)
    14d2:	0014                	.insn	2, 0x0014
    14d4:	3700                	.insn	2, 0x3700
    14d6:	1b00                	addi	s0,sp,432
    14d8:	0000                	unimp
    14da:	0002                	c.slli64	zero
    14dc:	0038                	addi	a4,sp,8
    14de:	5830                	lw	a2,112(s0)
    14e0:	0014                	.insn	2, 0x0014
    14e2:	0700                	addi	s0,sp,896
    14e4:	0015                	c.nop	5
    14e6:	0400                	addi	s0,sp,512
    14e8:	0000                	unimp
    14ea:	0138                	addi	a4,sp,136
    14ec:	5b30                	lw	a2,112(a4)
    14ee:	0014                	.insn	2, 0x0014
    14f0:	1c00                	addi	s0,sp,560
    14f2:	0015                	c.nop	5
    14f4:	0400                	addi	s0,sp,512
    14f6:	0000                	unimp
    14f8:	0238                	addi	a4,sp,264
    14fa:	6130                	.insn	2, 0x6130
    14fc:	0014                	.insn	2, 0x0014
    14fe:	3100                	.insn	2, 0x3100
    1500:	0015                	c.nop	5
    1502:	0400                	addi	s0,sp,512
    1504:	0000                	unimp
    1506:	0400                	addi	s0,sp,512
    1508:	1458                	addi	a4,sp,548
    150a:	0000                	unimp
    150c:	0108                	addi	a0,sp,128
    150e:	0604                	addi	s1,sp,768
    1510:	0698                	addi	a4,sp,832
    1512:	0000                	unimp
    1514:	1b00                	addi	s0,sp,432
    1516:	0000                	unimp
    1518:	0202                	c.slli64	tp
    151a:	0001                	nop
    151c:	5b04                	lw	s1,48(a4)
    151e:	0014                	.insn	2, 0x0014
    1520:	0800                	addi	s0,sp,16
    1522:	0401                	addi	s0,s0,0
    1524:	9806                	add	a6,a6,ra
    1526:	0006                	c.slli	zero,0x1
    1528:	2500                	.insn	2, 0x2500
    152a:	000e                	c.slli	zero,0x3
    152c:	0400                	addi	s0,sp,512
    152e:	0104                	addi	s1,sp,128
    1530:	3b00                	.insn	2, 0x3b00
    1532:	1461                	addi	s0,s0,-8
    1534:	0000                	unimp
    1536:	0108                	addi	a0,sp,128
    1538:	0004                	.insn	2, 0x0004
    153a:	1e04                	addi	s1,sp,816
    153c:	0016                	c.slli	zero,0x5
    153e:	0800                	addi	s0,sp,16
    1540:	0401                	addi	s0,s0,0
    1542:	e506                	.insn	2, 0xe506
    1544:	4f00000b          	.insn	4, 0x4f00000b
    1548:	0015                	c.nop	5
    154a:	0400                	addi	s0,sp,512
    154c:	0300                	addi	s0,sp,384
    154e:	0400                	addi	s0,sp,512
    1550:	1611                	addi	a2,a2,-28
    1552:	0000                	unimp
    1554:	0308                	addi	a0,sp,384
    1556:	3604                	.insn	2, 0x3604
    1558:	155c                	addi	a5,sp,676
    155a:	0000                	unimp
    155c:	00178437          	lui	s0,0x178
    1560:	0400                	addi	s0,sp,512
    1562:	3900                	.insn	2, 0x3900
    1564:	7530                	.insn	2, 0x7530
    1566:	0014                	.insn	2, 0x0014
    1568:	7f00                	.insn	2, 0x7f00
    156a:	0015                	c.nop	5
    156c:	0400                	addi	s0,sp,512
    156e:	0000                	unimp
    1570:	0038                	addi	a4,sp,8
    1572:	6930                	.insn	2, 0x6930
    1574:	0014                	.insn	2, 0x0014
    1576:	ac00                	.insn	2, 0xac00
    1578:	0015                	c.nop	5
    157a:	0400                	addi	s0,sp,512
    157c:	0000                	unimp
    157e:	0400                	addi	s0,sp,512
    1580:	1475                	addi	s0,s0,-3 # 177ffd <__global_pointer$+0x165f71>
    1582:	0000                	unimp
    1584:	0308                	addi	a0,sp,384
    1586:	0604                	addi	s1,sp,768
    1588:	14ca                	slli	s1,s1,0x32
    158a:	0000                	unimp
    158c:	1396                	slli	t2,t2,0x25
    158e:	0000                	unimp
    1590:	0004                	.insn	2, 0x0004
    1592:	14f70603          	lb	a2,335(a4)
    1596:	0000                	unimp
    1598:	1b42                	slli	s6,s6,0x30
    159a:	0000                	unimp
    159c:	0404                	addi	s1,sp,512
    159e:	15eb0603          	lb	a2,350(s6)
    15a2:	0000                	unimp
    15a4:	16a5                	addi	a3,a3,-23 # fe9 <core::panicking::panic_bounds_check-0xf0ab>
    15a6:	0000                	unimp
    15a8:	0801                	addi	a6,a6,0
    15aa:	69040003          	lb	zero,1680(s0)
    15ae:	0014                	.insn	2, 0x0014
    15b0:	0800                	addi	s0,sp,16
    15b2:	98060403          	lb	s0,-1664(a2)
    15b6:	0006                	c.slli	zero,0x1
    15b8:	0000                	unimp
    15ba:	0200001b          	.insn	4, 0x0200001b
    15be:	0304                	addi	s1,sp,384
    15c0:	0000                	unimp
    15c2:	3b00                	.insn	2, 0x3b00
    15c4:	0000150b          	.insn	4, 0x150b
    15c8:	0100                	addi	s0,sp,128
    15ca:	0401                	addi	s0,s0,0
    15cc:	156c                	addi	a1,sp,684
    15ce:	0000                	unimp
    15d0:	0110                	addi	a2,sp,128
    15d2:	0604                	addi	s1,sp,768
    15d4:	1515                	addi	a0,a0,-27
    15d6:	0000                	unimp
    15d8:	15ec                	addi	a1,sp,748
    15da:	0000                	unimp
    15dc:	0804                	addi	s1,sp,16
    15de:	0bd90603          	lb	a2,189(s2)
    15e2:	0000                	unimp
    15e4:	1b6c                	addi	a1,sp,444
    15e6:	0000                	unimp
    15e8:	0004                	.insn	2, 0x0004
    15ea:	1d040003          	lb	zero,464(s0)
    15ee:	0015                	c.nop	5
    15f0:	0800                	addi	s0,sp,16
    15f2:	0401                	addi	s0,s0,0
    15f4:	4406                	lw	s0,64(sp)
    15f6:	0014                	.insn	2, 0x0014
    15f8:	8400                	.insn	2, 0x8400
    15fa:	04000017          	auipc	zero,0x4000
    15fe:	0300                	addi	s0,sp,384
    1600:	6f06                	.insn	2, 0x6f06
    1602:	0014                	.insn	2, 0x0014
    1604:	0000                	unimp
    1606:	0200001b          	.insn	4, 0x0200001b
    160a:	0304                	addi	s1,sp,384
    160c:	4a06                	lw	s4,64(sp)
    160e:	0014                	.insn	2, 0x0014
    1610:	0000                	unimp
    1612:	0200001b          	.insn	4, 0x0200001b
    1616:	0306                	slli	t1,t1,0x1
    1618:	0000                	unimp
    161a:	0102                	c.slli64	sp
    161c:	0015                	c.nop	5
    161e:	0400                	addi	s0,sp,512
    1620:	15ce                	slli	a1,a1,0x33
    1622:	0000                	unimp
    1624:	0101                	addi	sp,sp,0
    1626:	3601                	jal	1126 <core::panicking::panic_bounds_check-0xef6e>
    1628:	162c                	addi	a1,sp,808
    162a:	0000                	unimp
    162c:	001ad237          	lui	tp,0x1ad
    1630:	0100                	addi	s0,sp,128
    1632:	3800                	.insn	2, 0x3800
    1634:	3000                	.insn	2, 0x3000
    1636:	1508                	addi	a0,sp,672
    1638:	0000                	unimp
    163a:	1650                	addi	a2,sp,804
    163c:	0000                	unimp
    163e:	0001                	nop
    1640:	3800                	.insn	2, 0x3800
    1642:	3001                	jal	e42 <core::panicking::panic_bounds_check-0xf252>
    1644:	1511                	addi	a0,a0,-28
    1646:	0000                	unimp
    1648:	00001677          	.insn	4, 0x1677
    164c:	0001                	nop
    164e:	0000                	unimp
    1650:	0804                	addi	s1,sp,16
    1652:	0015                	c.nop	5
    1654:	0100                	addi	s0,sp,128
    1656:	0101                	addi	sp,sp,0
    1658:	2e05                	jal	1988 <core::panicking::panic_bounds_check-0xe70c>
    165a:	c200001b          	.insn	4, 0xc200001b
    165e:	0000                	unimp
    1660:	0500                	addi	s0,sp,640
    1662:	000015c3          	.insn	4, 0x15c3
    1666:	1e70                	addi	a2,sp,828
    1668:	0000                	unimp
    166a:	9806                	add	a6,a6,ra
    166c:	0006                	c.slli	zero,0x1
    166e:	2e00                	.insn	2, 0x2e00
    1670:	0100001b          	.insn	4, 0x0100001b
    1674:	0101                	addi	sp,sp,0
    1676:	0400                	addi	s0,sp,512
    1678:	1511                	addi	a0,a0,-28
    167a:	0000                	unimp
    167c:	0101                	addi	sp,sp,0
    167e:	0501                	addi	a0,a0,0
    1680:	1b2e                	slli	s6,s6,0x2b
    1682:	0000                	unimp
    1684:	00c2                	slli	ra,ra,0x10
    1686:	0000                	unimp
    1688:	c305                	beqz	a4,16a8 <core::panicking::panic_bounds_check-0xe9ec>
    168a:	0015                	c.nop	5
    168c:	7000                	.insn	2, 0x7000
    168e:	001e                	c.slli	zero,0x7
    1690:	0600                	addi	s0,sp,768
    1692:	0698                	addi	a4,sp,832
    1694:	0000                	unimp
    1696:	000015c3          	.insn	4, 0x15c3
    169a:	0101                	addi	sp,sp,0
    169c:	0001                	nop
    169e:	0000                	unimp
    16a0:	f502                	.insn	2, 0xf502
    16a2:	0015                	c.nop	5
    16a4:	0400                	addi	s0,sp,512
    16a6:	1600                	addi	s0,sp,800
    16a8:	0000                	unimp
    16aa:	0100                	addi	s0,sp,128
    16ac:	0501                	addi	a0,a0,0
    16ae:	1bb4                	addi	a3,sp,504
    16b0:	0000                	unimp
    16b2:	00c2                	slli	ra,ra,0x10
    16b4:	0000                	unimp
    16b6:	0400                	addi	s0,sp,512
    16b8:	168c                	addi	a1,sp,864
    16ba:	0000                	unimp
    16bc:	0100                	addi	s0,sp,128
    16be:	0501                	addi	a0,a0,0
    16c0:	00001aab          	.insn	4, 0x1aab
    16c4:	00c2                	slli	ra,ra,0x10
    16c6:	0000                	unimp
    16c8:	0000                	unimp
    16ca:	2c00                	.insn	2, 0x2c00
    16cc:	00000047          	.insn	4, 0x0047
    16d0:	00000583          	lb	a1,0(zero) # 0 <core::panicking::panic_bounds_check-0x10094>
    16d4:	0000                	unimp
    16d6:	0000                	unimp
    16d8:	e43c                	.insn	2, 0xe43c
    16da:	0102                	c.slli64	sp
    16dc:	2600                	.insn	2, 0x2600
    16de:	0000                	unimp
    16e0:	0100                	addi	s0,sp,128
    16e2:	7c52                	.insn	2, 0x7c52
    16e4:	0000                	unimp
    16e6:	0a00                	addi	s0,sp,272
    16e8:	00000453          	.insn	4, 0x0453
    16ec:	04fa                	slli	s1,s1,0x1e
    16ee:	0000                	unimp
    16f0:	3e02                	.insn	2, 0x3e02
    16f2:	000016cb          	.insn	4, 0x16cb
    16f6:	0102ec0b          	.insn	4, 0x0102ec0b
    16fa:	1600                	addi	s0,sp,800
    16fc:	0000                	unimp
    16fe:	0d00                	addi	s0,sp,656
    1700:	5801                	li	a6,-32
    1702:	1fa8                	addi	a0,sp,1016
    1704:	0000                	unimp
    1706:	0204                	addi	s1,sp,256
    1708:	2510                	.insn	2, 0x2510
    170a:	000e                	c.slli	zero,0x3
    170c:	0b00                	addi	s0,sp,400
    170e:	02ec                	addi	a1,sp,332
    1710:	0001                	nop
    1712:	0016                	c.slli	zero,0x5
    1714:	0000                	unimp
    1716:	e50c                	.insn	2, 0xe50c
    1718:	0000                	unimp
    171a:	0400                	addi	s0,sp,512
    171c:	1102                	slli	sp,sp,0x20
    171e:	0e25                	addi	t3,t3,9
    1720:	0000                	unimp
    1722:	0102ec0b          	.insn	4, 0x0102ec0b
    1726:	1600                	addi	s0,sp,800
    1728:	0000                	unimp
    172a:	0c00                	addi	s0,sp,528
    172c:	00ea                	slli	ra,ra,0x1a
    172e:	0000                	unimp
    1730:	0204                	addi	s1,sp,256
    1732:	2512                	.insn	2, 0x2512
    1734:	000e                	c.slli	zero,0x3
    1736:	1200                	addi	s0,sp,288
    1738:	0f3a                	slli	t5,t5,0xe
    173a:	0000                	unimp
    173c:	02f4                	addi	a3,sp,332
    173e:	0001                	nop
    1740:	000e                	c.slli	zero,0x3
    1742:	0000                	unimp
    1744:	4202                	lw	tp,0(sp)
    1746:	1319                	addi	t1,t1,-26
    1748:	5801                	li	a6,-32
    174a:	00000f4b          	.insn	4, 0x0f4b
    174e:	0000                	unimp
    1750:	0000                	unimp
    1752:	f705                	bnez	a4,167a <core::panicking::panic_bounds_check-0xea1a>
    1754:	000d                	c.nop	3
    1756:	c200                	sw	s0,0(a2)
    1758:	0000                	unimp
    175a:	0000                	unimp
    175c:	0a3c                	addi	a5,sp,280
    175e:	0e000103          	lb	sp,224(zero) # e0 <core::panicking::panic_bounds_check-0xffb4>
    1762:	0000                	unimp
    1764:	0100                	addi	s0,sp,128
    1766:	9a52                	add	s4,s4,s4
    1768:	0000                	unimp
    176a:	0a00                	addi	s0,sp,272
    176c:	046e                	slli	s0,s0,0x1b
    176e:	0000                	unimp
    1770:	026c                	addi	a1,sp,268
    1772:	0000                	unimp
    1774:	3402                	.insn	2, 0x3402
    1776:	0dfe                	slli	s11,s11,0x1f
    1778:	0000                	unimp
    177a:	f705                	bnez	a4,16a2 <core::panicking::panic_bounds_check-0xe9f2>
    177c:	000d                	c.nop	3
    177e:	c200                	sw	s0,0(a2)
    1780:	0000                	unimp
    1782:	0000                	unimp
    1784:	8a2e                	mv	s4,a1
    1786:	0006                	c.slli	zero,0x1
    1788:	0700                	addi	s0,sp,896
    178a:	2f04                	.insn	2, 0x2f04
    178c:	0755                	addi	a4,a4,21
    178e:	0000                	unimp
    1790:	0408                	addi	a0,sp,512
    1792:	c430                	sw	a2,72(s0)
    1794:	0000                	unimp
    1796:	1c00                	addi	s0,sp,560
    1798:	000e                	c.slli	zero,0x3
    179a:	0400                	addi	s0,sp,512
    179c:	3000                	.insn	2, 0x3000
    179e:	00cd                	addi	ra,ra,19
    17a0:	0000                	unimp
    17a2:	0e25                	addi	t3,t3,9
    17a4:	0000                	unimp
    17a6:	0404                	addi	s1,sp,512
    17a8:	2f00                	.insn	2, 0x2f00
    17aa:	0895                	addi	a7,a7,5
    17ac:	0000                	unimp
    17ae:	0408                	addi	a0,sp,512
    17b0:	c430                	sw	a2,72(s0)
    17b2:	0000                	unimp
    17b4:	1c00                	addi	s0,sp,560
    17b6:	000e                	c.slli	zero,0x3
    17b8:	0400                	addi	s0,sp,512
    17ba:	3000                	.insn	2, 0x3000
    17bc:	00cd                	addi	ra,ra,19
    17be:	0000                	unimp
    17c0:	0e25                	addi	t3,t3,9
    17c2:	0000                	unimp
    17c4:	0404                	addi	s1,sp,512
    17c6:	2c00                	.insn	2, 0x2c00
    17c8:	00000df7          	.insn	4, 0x0df7
    17cc:	090e                	slli	s2,s2,0x3
    17ce:	0000                	unimp
    17d0:	0000                	unimp
    17d2:	0000                	unimp
    17d4:	0009912f          	.insn	4, 0x0009912f
    17d8:	1000                	addi	s0,sp,32
    17da:	3004                	.insn	2, 0x3004
    17dc:	0698                	addi	a4,sp,832
    17de:	0000                	unimp
    17e0:	0000178b          	.insn	4, 0x178b
    17e4:	0004                	.insn	2, 0x0004
    17e6:	8d30                	.insn	2, 0x8d30
    17e8:	0009                	c.nop	2
    17ea:	8b00                	.insn	2, 0x8b00
    17ec:	04000017          	auipc	zero,0x4000
    17f0:	0008                	.insn	2, 0x0008
    17f2:	000b0d2f          	.insn	4, 0x000b0d2f
    17f6:	1000                	addi	s0,sp,32
    17f8:	3004                	.insn	2, 0x3004
    17fa:	0698                	addi	a4,sp,832
    17fc:	0000                	unimp
    17fe:	1058                	addi	a4,sp,36
    1800:	0000                	unimp
    1802:	0004                	.insn	2, 0x0004
    1804:	8d30                	.insn	2, 0x8d30
    1806:	0009                	c.nop	2
    1808:	5800                	lw	s0,48(s0)
    180a:	0010                	.insn	2, 0x0010
    180c:	0400                	addi	s0,sp,512
    180e:	0008                	.insn	2, 0x0008
    1810:	183c                	addi	a5,sp,56
    1812:	42000103          	lb	sp,1056(zero) # 420 <core::panicking::panic_bounds_check-0xfc74>
    1816:	0000                	unimp
    1818:	0100                	addi	s0,sp,128
    181a:	b852                	.insn	2, 0xb852
    181c:	0000                	unimp
    181e:	0a00                	addi	s0,sp,272
    1820:	049f 0000 04fa      	.insn	6, 0x04fa0000049f
    1826:	0000                	unimp
    1828:	4f02                	lw	t5,0(sp)
    182a:	000016cb          	.insn	4, 0x16cb
    182e:	d811                	beqz	s0,1742 <core::panicking::panic_bounds_check-0xe952>
    1830:	0001                	nop
    1832:	0e00                	addi	s0,sp,784
    1834:	00000527          	.insn	4, 0x0527
    1838:	1fa8                	addi	a0,sp,1016
    183a:	0000                	unimp
    183c:	0204                	addi	s1,sp,256
    183e:	2510                	.insn	2, 0x2510
    1840:	000e                	c.slli	zero,0x3
    1842:	1100                	addi	s0,sp,160
    1844:	01f8                	addi	a4,sp,204
    1846:	0000                	unimp
    1848:	d00e                	sw	gp,32(sp)
    184a:	0004                	.insn	2, 0x0004
    184c:	e500                	.insn	2, 0xe500
    184e:	0000                	unimp
    1850:	0400                	addi	s0,sp,512
    1852:	1102                	slli	sp,sp,0x20
    1854:	0e25                	addi	t3,t3,9
    1856:	0000                	unimp
    1858:	1811                	addi	a6,a6,-28
    185a:	0002                	c.slli64	zero
    185c:	0e00                	addi	s0,sp,784
    185e:	0501                	addi	a0,a0,0
    1860:	0000                	unimp
    1862:	00ea                	slli	ra,ra,0x1a
    1864:	0000                	unimp
    1866:	0204                	addi	s1,sp,256
    1868:	2512                	.insn	2, 0x2512
    186a:	000e                	c.slli	zero,0x3
    186c:	1200                	addi	s0,sp,288
    186e:	11d4                	addi	a3,sp,228
    1870:	0000                	unimp
    1872:	0322                	slli	t1,t1,0x8
    1874:	0001                	nop
    1876:	0006                	c.slli	zero,0x1
    1878:	0000                	unimp
    187a:	5202                	lw	tp,32(sp)
    187c:	181d                	addi	a6,a6,-25
    187e:	0542                	slli	a0,a0,0x10
    1880:	0000                	unimp
    1882:	11f6                	slli	gp,gp,0x3d
    1884:	0000                	unimp
    1886:	7c18                	.insn	2, 0x7c18
    1888:	0005                	c.nop	1
    188a:	0100                	addi	s0,sp,128
    188c:	0012                	c.slli	zero,0x4
    188e:	1200                	addi	s0,sp,288
    1890:	118c                	addi	a1,sp,224
    1892:	0000                	unimp
    1894:	0322                	slli	t1,t1,0x8
    1896:	0001                	nop
    1898:	0006                	c.slli	zero,0x1
    189a:	0000                	unimp
    189c:	1205                	addi	tp,tp,-31 # 1acfe1 <__global_pointer$+0x19af55>
    189e:	05a9180f          	.insn	4, 0x05a9180f
    18a2:	0000                	unimp
    18a4:	11a6                	slli	gp,gp,0x29
    18a6:	0000                	unimp
    18a8:	5f18                	lw	a4,56(a4)
    18aa:	0005                	c.nop	1
    18ac:	b200                	.insn	2, 0xb200
    18ae:	0011                	c.nop	4
    18b0:	3d00                	.insn	2, 0x3d00
    18b2:	0f64                	addi	s1,sp,924
    18b4:	0000                	unimp
    18b6:	0322                	slli	t1,t1,0x8
    18b8:	0001                	nop
    18ba:	0002                	c.slli64	zero
    18bc:	0000                	unimp
    18be:	b705                	j	17de <core::panicking::panic_bounds_check-0xe8b6>
    18c0:	1d01                	addi	s10,s10,-32
    18c2:	755c0113          	addi	sp,s8,1877
    18c6:	1300000f          	.insn	4, 0x1300000f
    18ca:	5d01                	li	s10,-32
    18cc:	0f81                	addi	t6,t6,0
    18ce:	0000                	unimp
    18d0:	0b00                	addi	s0,sp,400
    18d2:	0324                	addi	s1,sp,392
    18d4:	0001                	nop
    18d6:	0004                	.insn	2, 0x0004
    18d8:	0000                	unimp
    18da:	013e                	slli	sp,sp,0xf
    18dc:	bf5c                	.insn	2, 0xbf5c
    18de:	0011                	c.nop	4
    18e0:	3d00                	.insn	2, 0x3d00
    18e2:	120e                	slli	tp,tp,0x23
    18e4:	0000                	unimp
    18e6:	0324                	addi	s1,sp,392
    18e8:	0001                	nop
    18ea:	0004                	.insn	2, 0x0004
    18ec:	0000                	unimp
    18ee:	be05                	j	141e <core::panicking::panic_bounds_check-0xec76>
    18f0:	1401                	addi	s0,s0,-32
    18f2:	d618                	sw	a4,40(a2)
    18f4:	0005                	c.nop	1
    18f6:	2700                	.insn	2, 0x2700
    18f8:	0012                	c.slli	zero,0x4
    18fa:	1800                	addi	s0,sp,48
    18fc:	000005f3          	.insn	4, 0x05f3
    1900:	1232                	slli	tp,tp,0x2c
    1902:	0000                	unimp
    1904:	3d5c0113          	addi	sp,s8,981
    1908:	0012                	c.slli	zero,0x4
    190a:	0000                	unimp
    190c:	0000                	unimp
    190e:	1a00                	addi	s0,sp,304
    1910:	000012d3          	.insn	4, 0x12d3
    1914:	0238                	addi	a4,sp,264
    1916:	0000                	unimp
    1918:	5402                	lw	s0,32(sp)
    191a:	060e182b          	.insn	4, 0x060e182b
    191e:	0000                	unimp
    1920:	12ed                	addi	t0,t0,-5
    1922:	0000                	unimp
    1924:	9518                	.insn	2, 0x9518
    1926:	0006                	c.slli	zero,0x1
    1928:	f900                	.insn	2, 0xf900
    192a:	0012                	c.slli	zero,0x4
    192c:	1700                	addi	s0,sp,928
    192e:	12a0                	addi	s0,sp,360
    1930:	0000                	unimp
    1932:	0238                	addi	a4,sp,264
    1934:	0000                	unimp
    1936:	14079b07          	.insn	4, 0x14079b07
    193a:	3b18                	.insn	2, 0x3b18
    193c:	0006                	c.slli	zero,0x1
    193e:	ba00                	.insn	2, 0xba00
    1940:	0012                	c.slli	zero,0x4
    1942:	1800                	addi	s0,sp,48
    1944:	06b0                	addi	a2,sp,840
    1946:	0000                	unimp
    1948:	12c6                	slli	t0,t0,0x31
    194a:	0000                	unimp
    194c:	00124f17          	auipc	t5,0x124
    1950:	3800                	.insn	2, 0x3800
    1952:	0002                	c.slli64	zero
    1954:	0700                	addi	s0,sp,896
    1956:	18200867          	jalr	a6,386(zero) # 182 <core::panicking::panic_bounds_check-0xff12>
    195a:	0668                	addi	a0,sp,780
    195c:	0000                	unimp
    195e:	1269                	addi	tp,tp,-6 # fffffffa <__global_pointer$+0xfffedf6e>
    1960:	0000                	unimp
    1962:	cb18                	sw	a4,16(a4)
    1964:	0006                	c.slli	zero,0x1
    1966:	7500                	.insn	2, 0x7500
    1968:	0012                	c.slli	zero,0x4
    196a:	1100                	addi	s0,sp,160
    196c:	0238                	addi	a4,sp,264
    196e:	0000                	unimp
    1970:	e619                	bnez	a2,197e <core::panicking::panic_bounds_check-0xe716>
    1972:	0006                	c.slli	zero,0x1
    1974:	8200                	.insn	2, 0x8200
    1976:	0012                	c.slli	zero,0x4
    1978:	1100                	addi	s0,sp,160
    197a:	0238                	addi	a4,sp,264
    197c:	0000                	unimp
    197e:	013e                	slli	sp,sp,0xf
    1980:	0012905b          	.insn	4, 0x0012905b
    1984:	1700                	addi	s0,sp,928
    1986:	135c                	addi	a5,sp,420
    1988:	0000                	unimp
    198a:	0250                	addi	a2,sp,260
    198c:	0000                	unimp
    198e:	4007ff07          	.insn	4, 0x4007ff07
    1992:	765b0113          	addi	sp,s6,1893
    1996:	18000013          	li	zero,384
    199a:	0701                	addi	a4,a4,0
    199c:	0000                	unimp
    199e:	1382                	slli	t2,t2,0x20
	...
    19a8:	6811                	lui	a6,0x4
    19aa:	0002                	c.slli64	zero
    19ac:	0e00                	addi	s0,sp,784
    19ae:	071c                	addi	a5,sp,896
    19b0:	0000                	unimp
    19b2:	00001fc7          	.insn	4, 0x1fc7
    19b6:	0204                	addi	s1,sp,256
    19b8:	8b54                	.insn	2, 0x8b54
    19ba:	0e000017          	auipc	zero,0xe000
    19be:	0000074b          	.insn	4, 0x074b
    19c2:	1fcd                	addi	t6,t6,-13
    19c4:	0000                	unimp
    19c6:	0204                	addi	s1,sp,256
    19c8:	8b54                	.insn	2, 0x8b54
    19ca:	00000017          	auipc	zero,0x0
    19ce:	0000                	unimp
    19d0:	0500                	addi	s0,sp,640
    19d2:	00000df7          	.insn	4, 0x0df7
    19d6:	00c2                	slli	ra,ra,0x10
    19d8:	0000                	unimp
    19da:	2c00                	.insn	2, 0x2c00
    19dc:	074e                	slli	a4,a4,0x13
    19de:	0000                	unimp
    19e0:	0ba4                	addi	s1,sp,472
    19e2:	0000                	unimp
    19e4:	0000                	unimp
    19e6:	0000                	unimp
    19e8:	a32c                	.insn	2, 0xa32c
    19ea:	41000007          	.insn	4, 0x41000007
    19ee:	000c                	.insn	2, 0x000c
    19f0:	0000                	unimp
    19f2:	0000                	unimp
    19f4:	2c00                	.insn	2, 0x2c00
    19f6:	08bd                	addi	a7,a7,15
    19f8:	0000                	unimp
    19fa:	0ce9                	addi	s9,s9,26
    19fc:	0000                	unimp
    19fe:	0000                	unimp
    1a00:	0000                	unimp
    1a02:	442c                	lw	a1,72(s0)
    1a04:	0009                	c.nop	2
    1a06:	ce00                	sw	s0,24(a2)
    1a08:	000d                	c.nop	3
    1a0a:	0000                	unimp
    1a0c:	0000                	unimp
    1a0e:	2c00                	.insn	2, 0x2c00
    1a10:	09c1                	addi	s3,s3,16
    1a12:	0000                	unimp
    1a14:	0eec                	addi	a1,sp,860
    1a16:	0000                	unimp
    1a18:	0000                	unimp
    1a1a:	0000                	unimp
    1a1c:	482c                	lw	a1,80(s0)
    1a1e:	000a                	c.slli	zero,0x2
    1a20:	cb00                	sw	s0,16(a4)
    1a22:	0000000f          	fence	unknown,unknown
    1a26:	0000                	unimp
    1a28:	2c00                	.insn	2, 0x2c00
    1a2a:	00000acf          	.insn	4, 0x0acf
    1a2e:	1060                	addi	s0,sp,44
    1a30:	0000                	unimp
    1a32:	0000                	unimp
    1a34:	0000                	unimp
    1a36:	562c                	lw	a1,104(a2)
    1a38:	fa00000b          	.insn	4, 0xfa00000b
    1a3c:	0010                	.insn	2, 0x0010
    1a3e:	0000                	unimp
    1a40:	0000                	unimp
    1a42:	2c00                	.insn	2, 0x2c00
    1a44:	0bf0                	addi	a2,sp,476
    1a46:	0000                	unimp
    1a48:	1198                	addi	a4,sp,224
    1a4a:	0000                	unimp
    1a4c:	0000                	unimp
    1a4e:	0000                	unimp
    1a50:	772c                	.insn	2, 0x772c
    1a52:	000c                	.insn	2, 0x000c
    1a54:	8c00                	.insn	2, 0x8c00
    1a56:	0012                	c.slli	zero,0x4
    1a58:	0000                	unimp
    1a5a:	0000                	unimp
    1a5c:	2c00                	.insn	2, 0x2c00
    1a5e:	06e8                	addi	a0,sp,844
    1a60:	0000                	unimp
    1a62:	1328                	addi	a0,sp,424
    1a64:	0000                	unimp
    1a66:	0000                	unimp
    1a68:	0000                	unimp
    1a6a:	de2c                	sw	a1,120(a2)
    1a6c:	dd000013          	li	zero,-560
    1a70:	0016                	c.slli	zero,0x5
    1a72:	0000                	unimp
    1a74:	0000                	unimp
    1a76:	2c00                	.insn	2, 0x2c00
    1a78:	145d                	addi	s0,s0,-9
    1a7a:	0000                	unimp
    1a7c:	1642                	slli	a2,a2,0x30
    1a7e:	0000                	unimp
    1a80:	0000                	unimp
    1a82:	0000                	unimp
    1a84:	0014332f          	.insn	4, 0x0014332f
    1a88:	0800                	addi	s0,sp,16
    1a8a:	3004                	.insn	2, 0x3004
    1a8c:	00c4                	addi	s1,sp,68
    1a8e:	0000                	unimp
    1a90:	1aa2                	slli	s5,s5,0x28
    1a92:	0000                	unimp
    1a94:	0004                	.insn	2, 0x0004
    1a96:	cd30                	sw	a2,88(a0)
    1a98:	0000                	unimp
    1a9a:	2500                	.insn	2, 0x2500
    1a9c:	000e                	c.slli	zero,0x3
    1a9e:	0400                	addi	s0,sp,512
    1aa0:	0004                	.insn	2, 0x0004
    1aa2:	ab31                	j	1fbe <core::panicking::panic_bounds_check-0xe0d6>
    1aa4:	001a                	c.slli	zero,0x6
    1aa6:	0000                	unimp
    1aa8:	0000                	unimp
    1aaa:	2f00                	.insn	2, 0x2f00
    1aac:	142e                	slli	s0,s0,0x2b
    1aae:	0000                	unimp
    1ab0:	0408                	addi	a0,sp,512
    1ab2:	c430                	sw	a2,72(s0)
    1ab4:	0000                	unimp
    1ab6:	c900                	sw	s0,16(a0)
    1ab8:	001a                	c.slli	zero,0x6
    1aba:	0400                	addi	s0,sp,512
    1abc:	3000                	.insn	2, 0x3000
    1abe:	00cd                	addi	ra,ra,19
    1ac0:	0000                	unimp
    1ac2:	0e25                	addi	t3,t3,9
    1ac4:	0000                	unimp
    1ac6:	0404                	addi	s1,sp,512
    1ac8:	3100                	.insn	2, 0x3100
    1aca:	1ad2                	slli	s5,s5,0x34
    1acc:	0000                	unimp
    1ace:	0000                	unimp
    1ad0:	0000                	unimp
    1ad2:	2b2e                	.insn	2, 0x2b2e
    1ad4:	0014                	.insn	2, 0x0014
    1ad6:	0700                	addi	s0,sp,896
    1ad8:	2f01                	jal	21e8 <core::panicking::panic_bounds_check-0xdeac>
    1ada:	1481                	addi	s1,s1,-32
    1adc:	0000                	unimp
    1ade:	0408                	addi	a0,sp,512
    1ae0:	c430                	sw	a2,72(s0)
    1ae2:	0000                	unimp
    1ae4:	f700                	.insn	2, 0xf700
    1ae6:	001a                	c.slli	zero,0x6
    1ae8:	0400                	addi	s0,sp,512
    1aea:	3000                	.insn	2, 0x3000
    1aec:	00cd                	addi	ra,ra,19
    1aee:	0000                	unimp
    1af0:	0e25                	addi	t3,t3,9
    1af2:	0000                	unimp
    1af4:	0404                	addi	s1,sp,512
    1af6:	3100                	.insn	2, 0x3100
    1af8:	0000148f          	.insn	4, 0x148f
    1afc:	0000                	unimp
    1afe:	0000                	unimp
    1b00:	542e                	lw	s0,232(sp)
    1b02:	0014                	.insn	2, 0x0014
    1b04:	0700                	addi	s0,sp,896
    1b06:	2f02                	.insn	2, 0x2f02
    1b08:	00001627          	.insn	4, 0x1627
    1b0c:	0408                	addi	a0,sp,512
    1b0e:	c430                	sw	a2,72(s0)
    1b10:	0000                	unimp
    1b12:	2500                	.insn	2, 0x2500
    1b14:	0400001b          	.insn	4, 0x0400001b
    1b18:	3000                	.insn	2, 0x3000
    1b1a:	00cd                	addi	ra,ra,19
    1b1c:	0000                	unimp
    1b1e:	0e25                	addi	t3,t3,9
    1b20:	0000                	unimp
    1b22:	0404                	addi	s1,sp,512
    1b24:	3100                	.insn	2, 0x3100
    1b26:	153a                	slli	a0,a0,0x2e
    1b28:	0000                	unimp
    1b2a:	0000                	unimp
    1b2c:	0000                	unimp
    1b2e:	e82e                	.insn	2, 0xe82e
    1b30:	0014                	.insn	2, 0x0014
    1b32:	0700                	addi	s0,sp,896
    1b34:	2c00                	.insn	2, 0x2c00
    1b36:	1b2e                	slli	s6,s6,0x2b
    1b38:	0000                	unimp
    1b3a:	14e1                	addi	s1,s1,-8
    1b3c:	0000                	unimp
    1b3e:	0000                	unimp
    1b40:	0000                	unimp
    1b42:	4f2c                	lw	a1,88(a4)
    1b44:	7600001b          	.insn	4, 0x7600001b
    1b48:	0015                	c.nop	5
    1b4a:	0000                	unimp
    1b4c:	0000                	unimp
    1b4e:	3f00                	.insn	2, 0x3f00
    1b50:	161f 0000 9608      	.insn	6, 0x96080000161f
    1b56:	08000013          	li	zero,128
    1b5a:	1b5f 0000 2c00      	.insn	6, 0x2c0000001b5f
    1b60:	000015cb          	.insn	4, 0x15cb
    1b64:	155c                	addi	a5,sp,676
    1b66:	0000                	unimp
    1b68:	0000                	unimp
    1b6a:	0000                	unimp
    1b6c:	0015422f          	.insn	4, 0x0015422f
    1b70:	0800                	addi	s0,sp,16
    1b72:	3004                	.insn	2, 0x3004
    1b74:	14d9                	addi	s1,s1,-10
    1b76:	0000                	unimp
    1b78:	1b8a                	slli	s7,s7,0x22
    1b7a:	0000                	unimp
    1b7c:	0004                	.insn	2, 0x0004
    1b7e:	2f30                	.insn	2, 0x2f30
    1b80:	0015                	c.nop	5
    1b82:	9a00                	.insn	2, 0x9a00
    1b84:	0400001b          	.insn	4, 0x0400001b
    1b88:	0004                	.insn	2, 0x0004
    1b8a:	9331                	srli	a4,a4,0x2c
    1b8c:	0000001b          	.insn	4, 0x001b
    1b90:	0000                	unimp
    1b92:	1e00                	addi	s0,sp,816
    1b94:	00001547          	.insn	4, 0x1547
    1b98:	0100                	addi	s0,sp,128
    1b9a:	a72c                	.insn	2, 0xa72c
    1b9c:	3600001b          	.insn	4, 0x3600001b
    1ba0:	0015                	c.nop	5
    1ba2:	0000                	unimp
    1ba4:	0000                	unimp
    1ba6:	2a00                	.insn	2, 0x2a00
    1ba8:	0e25                	addi	t3,t3,9
    1baa:	0000                	unimp
    1bac:	000e2c2b          	.insn	4, 0x000e2c2b
    1bb0:	0000                	unimp
    1bb2:	0006                	c.slli	zero,0x1
    1bb4:	2e2c                	.insn	2, 0x2e2c
    1bb6:	fc00001b          	.insn	4, 0xfc00001b
    1bba:	0015                	c.nop	5
    1bbc:	0000                	unimp
    1bbe:	0000                	unimp
    1bc0:	2c00                	.insn	2, 0x2c00
    1bc2:	141d                	addi	s0,s0,-25
    1bc4:	0000                	unimp
    1bc6:	169e                	slli	a3,a3,0x27
    1bc8:	0000                	unimp
    1bca:	0000                	unimp
    1bcc:	0000                	unimp
    1bce:	0016612f          	.insn	4, 0x0016612f
    1bd2:	0800                	addi	s0,sp,16
    1bd4:	3004                	.insn	2, 0x3004
    1bd6:	00c4                	addi	s1,sp,68
    1bd8:	0000                	unimp
    1bda:	1ac9                	addi	s5,s5,-14
    1bdc:	0000                	unimp
    1bde:	0004                	.insn	2, 0x0004
    1be0:	cd30                	sw	a2,88(a0)
    1be2:	0000                	unimp
    1be4:	2500                	.insn	2, 0x2500
    1be6:	000e                	c.slli	zero,0x3
    1be8:	0400                	addi	s0,sp,512
    1bea:	0004                	.insn	2, 0x0004
    1bec:	0440                	addi	s0,sp,516
    1bee:	0105                	addi	sp,sp,1
    1bf0:	0600                	addi	s0,sp,768
    1bf2:	0000                	unimp
    1bf4:	0100                	addi	s0,sp,128
    1bf6:	9452                	add	s0,s0,s4
    1bf8:	001f 9400 001f      	.insn	6, 0x001f9400001f
    1bfe:	2a00                	.insn	2, 0x2a00
    1c00:	00000df7          	.insn	4, 0x0df7
    1c04:	000e2c2b          	.insn	4, 0x000e2c2b
    1c08:	0000                	unimp
    1c0a:	0005                	c.nop	1
    1c0c:	4c00                	lw	s0,24(s0)
    1c0e:	0000                	unimp
    1c10:	0400                	addi	s0,sp,512
    1c12:	0000                	unimp
    1c14:	0000                	unimp
    1c16:	0400                	addi	s0,sp,512
    1c18:	0041                	c.nop	16
    1c1a:	0000                	unimp
    1c1c:	1c00                	addi	s0,sp,560
    1c1e:	9300                	.insn	2, 0x9300
    1c20:	0001                	nop
    1c22:	7200                	.insn	2, 0x7200
    1c24:	0009                	c.nop	2
    1c26:	0400                	addi	s0,sp,512
    1c28:	0002                	c.slli64	zero
    1c2a:	0200                	addi	s0,sp,256
    1c2c:	0249                	addi	tp,tp,18 # 12 <core::panicking::panic_bounds_check-0x10082>
    1c2e:	0000                	unimp
    1c30:	4e02                	lw	t3,0(sp)
    1c32:	0002                	c.slli64	zero
    1c34:	4200                	lw	s0,0(a2)
    1c36:	0048                	addi	a0,sp,4
    1c38:	0000                	unimp
    1c3a:	0268                	addi	a0,sp,268
    1c3c:	0000                	unimp
    1c3e:	0101                	addi	sp,sp,0
    1c40:	00025543          	.insn	4, 0x00025543
    1c44:	7f00                	.insn	2, 0x7f00
    1c46:	00025a43          	.insn	4, 0x00025a43
    1c4a:	0000                	unimp
    1c4c:	00026043          	.insn	4, 0x00026043
    1c50:	0100                	addi	s0,sp,128
    1c52:	0000                	unimp
    1c54:	2e00                	.insn	2, 0x2e00
    1c56:	0252                	slli	tp,tp,0x14
    1c58:	0000                	unimp
    1c5a:	0105                	addi	sp,sp,1
    1c5c:	8900                	.insn	2, 0x8900
    1c5e:	0000                	unimp
    1c60:	0400                	addi	s0,sp,512
    1c62:	0000                	unimp
    1c64:	0000                	unimp
    1c66:	0400                	addi	s0,sp,512
    1c68:	0001                	nop
    1c6a:	0000                	unimp
    1c6c:	1c00                	addi	s0,sp,560
    1c6e:	6c00                	.insn	2, 0x6c00
    1c70:	90000013          	li	zero,-1792
    1c74:	0009                	c.nop	2
    1c76:	a200                	.insn	2, 0xa200
    1c78:	00000013          	nop
    1c7c:	0000                	unimp
    1c7e:	6800                	.insn	2, 0x6800
    1c80:	02000003          	lb	zero,32(zero) # 20 <core::panicking::panic_bounds_check-0x10074>
    1c84:	0249                	addi	tp,tp,18 # 12 <core::panicking::panic_bounds_check-0x10082>
    1c86:	0000                	unimp
    1c88:	d202                	sw	zero,36(sp)
    1c8a:	44000013          	li	zero,1088
    1c8e:	0094                	addi	a3,sp,64
    1c90:	0001                	nop
    1c92:	0010                	.insn	2, 0x0010
    1c94:	0000                	unimp
    1c96:	5801                	li	a6,-32
    1c98:	1ea6                	slli	t4,t4,0x29
    1c9a:	0000                	unimp
    1c9c:	1ee1                	addi	t4,t4,-8
    1c9e:	0000                	unimp
    1ca0:	1301                	addi	t1,t1,-32
    1ca2:	0301                	addi	t1,t1,0
    1ca4:	a445                	j	1f44 <core::panicking::panic_bounds_check-0xe150>
    1ca6:	0100                	addi	s0,sp,128
    1ca8:	0200                	addi	s0,sp,256
    1caa:	0000                	unimp
    1cac:	0100                	addi	s0,sp,128
    1cae:	f452                	.insn	2, 0xf452
    1cb0:	001e                	c.slli	zero,0x7
    1cb2:	2500                	.insn	2, 0x2500
    1cb4:	001f 0100 0337      	.insn	6, 0x03370100001f
    1cba:	b046                	.insn	2, 0xb046
    1cbc:	000d                	c.nop	3
    1cbe:	a400                	.insn	2, 0xa400
    1cc0:	0100                	addi	s0,sp,128
    1cc2:	0200                	addi	s0,sp,256
    1cc4:	0000                	unimp
    1cc6:	0100                	addi	s0,sp,128
    1cc8:	02000e4b          	.insn	4, 0x02000e4b
    1ccc:	1701                	addi	a4,a4,-32
    1cce:	0000                	unimp
    1cd0:	0100a647          	.insn	4, 0x0100a647
    1cd4:	1000                	addi	s0,sp,32
    1cd6:	0000                	unimp
    1cd8:	0100                	addi	s0,sp,128
    1cda:	2f58                	.insn	2, 0x2f58
    1cdc:	001f 7c00 001f      	.insn	6, 0x001f7c00001f
    1ce2:	0100                	addi	s0,sp,128
    1ce4:	03a8                	addi	a0,sp,456
    1ce6:	0000                	unimp
	...

Disassembly of section .debug_abbrev:

00000000 <.debug_abbrev>:
   0:	1101                	addi	sp,sp,-32
   2:	2501                	jal	602 <core::panicking::panic_bounds_check-0xfa92>
   4:	130e                	slli	t1,t1,0x23
   6:	0305                	addi	t1,t1,1
   8:	100e                	c.slli	zero,0x23
   a:	110e1b17          	auipc	s6,0x110e1
   e:	5501                	li	a0,-32
  10:	02000017          	auipc	zero,0x2000
  14:	0139                	addi	sp,sp,14
  16:	00000e03          	lb	t3,0(zero) # 0 <core::panicking::panic_bounds_check-0x10094>
  1a:	03003403          	.insn	4, 0x03003403
  1e:	490e                	lw	s2,192(sp)
  20:	3a193f13          	sltiu	t5,s2,929
  24:	880b3b0b          	.insn	4, 0x880b3b0b
  28:	0f01                	addi	t5,t5,0 # 12594c <__global_pointer$+0x1138c0>
  2a:	1802                	slli	a6,a6,0x20
  2c:	0000                	unimp
  2e:	1304                	addi	s1,sp,416
  30:	0301                	addi	t1,t1,0
  32:	0b0e                	slli	s6,s6,0x3
  34:	880b320b          	.insn	4, 0x880b320b
  38:	0f01                	addi	t5,t5,0
  3a:	0000                	unimp
  3c:	2f05                	jal	76c <core::panicking::panic_bounds_check-0xf928>
  3e:	4900                	lw	s0,16(a0)
  40:	000e0313          	mv	t1,t3
  44:	0600                	addi	s0,sp,768
  46:	000d                	c.nop	3
  48:	13490e03          	lb	t3,308(s2)
  4c:	0188                	addi	a0,sp,192
  4e:	320b380f          	.insn	4, 0x320b380f
  52:	0700000b          	.insn	4, 0x0700000b
  56:	012e                	slli	sp,sp,0xb
  58:	0e6e                	slli	t3,t3,0x1b
  5a:	0b3a0e03          	lb	t3,179(s4)
  5e:	13490b3b          	.insn	4, 0x13490b3b
  62:	193c                	addi	a5,sp,184
  64:	0000                	unimp
  66:	0508                	addi	a0,sp,640
  68:	4900                	lw	s0,16(a0)
  6a:	09000013          	li	zero,144
  6e:	012e                	slli	sp,sp,0xb
  70:	0111                	addi	sp,sp,4
  72:	0612                	slli	a2,a2,0x4
  74:	1840                	addi	s0,sp,52
  76:	0e6e                	slli	t3,t3,0x1b
  78:	0b3a0e03          	lb	t3,179(s4)
  7c:	13490b3b          	.insn	4, 0x13490b3b
  80:	0000                	unimp
  82:	050a                	slli	a0,a0,0x2
  84:	0200                	addi	s0,sp,256
  86:	3a0e0317          	auipc	t1,0x3a0e0
  8a:	490b3b0b          	.insn	4, 0x490b3b0b
  8e:	0b000013          	li	zero,176
  92:	0111010b          	.insn	4, 0x0111010b
  96:	0612                	slli	a2,a2,0x4
  98:	0000                	unimp
  9a:	340c                	.insn	2, 0x340c
  9c:	0300                	addi	s0,sp,384
  9e:	880e                	mv	a6,gp
  a0:	0f01                	addi	t5,t5,0
  a2:	0b3a                	slli	s6,s6,0xe
  a4:	13490b3b          	.insn	4, 0x13490b3b
  a8:	0000                	unimp
  aa:	340d                	jal	fffffacc <__global_pointer$+0xfffeda40>
  ac:	0200                	addi	s0,sp,256
  ae:	0318                	addi	a4,sp,384
  b0:	880e                	mv	a6,gp
  b2:	0f01                	addi	t5,t5,0
  b4:	0b3a                	slli	s6,s6,0xe
  b6:	13490b3b          	.insn	4, 0x13490b3b
  ba:	0000                	unimp
  bc:	340e                	.insn	2, 0x340e
  be:	0200                	addi	s0,sp,256
  c0:	880e0317          	auipc	t1,0x880e0
  c4:	0f01                	addi	t5,t5,0
  c6:	0b3a                	slli	s6,s6,0xe
  c8:	13490b3b          	.insn	4, 0x13490b3b
  cc:	0000                	unimp
  ce:	11012e0f          	.insn	4, 0x11012e0f
  d2:	1201                	addi	tp,tp,-32 # ffffffe0 <__global_pointer$+0xfffedf54>
  d4:	4006                	.insn	2, 0x4006
  d6:	6e18                	.insn	2, 0x6e18
  d8:	030e                	slli	t1,t1,0x3
  da:	3a0e                	.insn	2, 0x3a0e
  dc:	360b3b0b          	.insn	4, 0x360b3b0b
  e0:	0013490b          	.insn	4, 0x0013490b
  e4:	1000                	addi	s0,sp,32
  e6:	0005                	c.nop	1
  e8:	0b3a0e03          	lb	t3,179(s4)
  ec:	13490b3b          	.insn	4, 0x13490b3b
  f0:	0000                	unimp
  f2:	0b11                	addi	s6,s6,4 # 110e100e <__global_pointer$+0x110cef82>
  f4:	5501                	li	a0,-32
  f6:	12000017          	auipc	zero,0x12000
  fa:	011d                	addi	sp,sp,7
  fc:	1331                	addi	t1,t1,-20 # 880e00ac <__global_pointer$+0x880ce020>
  fe:	0111                	addi	sp,sp,4
 100:	0612                	slli	a2,a2,0x4
 102:	0b58                	addi	a4,sp,404
 104:	0b59                	addi	s6,s6,22
 106:	00000b57          	.insn	4, 0x0b57
 10a:	02000513          	li	a0,32
 10e:	3118                	.insn	2, 0x3118
 110:	14000013          	li	zero,320
 114:	012e                	slli	sp,sp,0xb
 116:	0111                	addi	sp,sp,4
 118:	0612                	slli	a2,a2,0x4
 11a:	1840                	addi	s0,sp,52
 11c:	0e6e                	slli	t3,t3,0x1b
 11e:	0b3a0e03          	lb	t3,179(s4)
 122:	00000b3b          	.insn	4, 0x0b3b
 126:	0515                	addi	a0,a0,5
 128:	0200                	addi	s0,sp,256
 12a:	0318                	addi	a4,sp,384
 12c:	3a0e                	.insn	2, 0x3a0e
 12e:	490b3b0b          	.insn	4, 0x490b3b0b
 132:	16000013          	li	zero,352
 136:	0034                	addi	a3,sp,8
 138:	1702                	slli	a4,a4,0x20
 13a:	01880e03          	lb	t3,24(a6) # 4018 <core::panicking::panic_bounds_check-0xc07c>
 13e:	3b0b3a0f          	.insn	4, 0x3b0b3a0f
 142:	4905                	li	s2,1
 144:	17000013          	li	zero,368
 148:	011d                	addi	sp,sp,7
 14a:	1331                	addi	t1,t1,-20
 14c:	1755                	addi	a4,a4,-11
 14e:	0b58                	addi	a4,sp,404
 150:	0559                	addi	a0,a0,22
 152:	00000b57          	.insn	4, 0x0b57
 156:	0518                	addi	a4,sp,640
 158:	0200                	addi	s0,sp,256
 15a:	00133117          	auipc	sp,0x133
 15e:	1900                	addi	s0,sp,176
 160:	0034                	addi	a3,sp,8
 162:	1702                	slli	a4,a4,0x20
 164:	1331                	addi	t1,t1,-20
 166:	0000                	unimp
 168:	1d1a                	slli	s10,s10,0x26
 16a:	3101                	jal	fffffd6a <__global_pointer$+0xfffedcde>
 16c:	58175513          	.insn	4, 0x58175513
 170:	570b590b          	.insn	4, 0x570b590b
 174:	1b00000b          	.insn	4, 0x1b00000b
 178:	012e                	slli	sp,sp,0xb
 17a:	0e6e                	slli	t3,t3,0x1b
 17c:	0b3a0e03          	lb	t3,179(s4)
 180:	13490b3b          	.insn	4, 0x13490b3b
 184:	0b20                	addi	s0,sp,408
 186:	0000                	unimp
 188:	051c                	addi	a5,sp,640
 18a:	3a00                	.insn	2, 0x3a00
 18c:	490b3b0b          	.insn	4, 0x490b3b0b
 190:	1d000013          	li	zero,464
 194:	0000010b          	.insn	4, 0x010b
 198:	131e                	slli	t1,t1,0x27
 19a:	0300                	addi	s0,sp,384
 19c:	0b0e                	slli	s6,s6,0x3
 19e:	0f01880b          	.insn	4, 0x0f01880b
 1a2:	0000                	unimp
 1a4:	2e1f 6e01 030e      	.insn	6, 0x030e6e012e1f
 1aa:	3a0e                	.insn	2, 0x3a0e
 1ac:	200b3b0b          	.insn	4, 0x200b3b0b
 1b0:	2000000b          	.insn	4, 0x2000000b
 1b4:	002e                	c.slli	zero,0xb
 1b6:	0111                	addi	sp,sp,4 # 13315e <__global_pointer$+0x1210d2>
 1b8:	0612                	slli	a2,a2,0x4
 1ba:	1840                	addi	s0,sp,52
 1bc:	0b3a0e03          	lb	t3,179(s4)
 1c0:	13490b3b          	.insn	4, 0x13490b3b
 1c4:	0000193f 03012e21 	.insn	8, 0x03012e210000193f
 1cc:	3a0e                	.insn	2, 0x3a0e
 1ce:	3f0b3b0b          	.insn	4, 0x3f0b3b0b
 1d2:	2019                	jal	1d8 <core::panicking::panic_bounds_check-0xfebc>
 1d4:	2200000b          	.insn	4, 0x2200000b
 1d8:	012e                	slli	sp,sp,0xb
 1da:	0111                	addi	sp,sp,4
 1dc:	0612                	slli	a2,a2,0x4
 1de:	1840                	addi	s0,sp,52
 1e0:	0b3a0e03          	lb	t3,179(s4)
 1e4:	193f0b3b          	.insn	4, 0x193f0b3b
 1e8:	00190187          	.insn	4, 0x00190187
 1ec:	2300                	.insn	2, 0x2300
 1ee:	0005                	c.nop	1
 1f0:	0f1c                	addi	a5,sp,912
 1f2:	1331                	addi	t1,t1,-20
 1f4:	0000                	unimp
 1f6:	2e24                	.insn	2, 0x2e24
 1f8:	1100                	addi	s0,sp,160
 1fa:	1201                	addi	tp,tp,-32 # ffffffe0 <__global_pointer$+0xfffedf54>
 1fc:	4006                	.insn	2, 0x4006
 1fe:	0318                	addi	a4,sp,384
 200:	3a0e                	.insn	2, 0x3a0e
 202:	3f0b3b0b          	.insn	4, 0x3f0b3b0b
 206:	8719                	srai	a4,a4,0x6
 208:	1901                	addi	s2,s2,-32
 20a:	0000                	unimp
 20c:	2e25                	jal	544 <core::panicking::panic_bounds_check-0xfb50>
 20e:	1100                	addi	s0,sp,160
 210:	1201                	addi	tp,tp,-32 # ffffffe0 <__global_pointer$+0xfffedf54>
 212:	4006                	.insn	2, 0x4006
 214:	0318                	addi	a4,sp,384
 216:	3a0e                	.insn	2, 0x3a0e
 218:	3f0b3b0b          	.insn	4, 0x3f0b3b0b
 21c:	0019                	c.nop	6
 21e:	2600                	.insn	2, 0x2600
 220:	012e                	slli	sp,sp,0xb
 222:	0111                	addi	sp,sp,4
 224:	0612                	slli	a2,a2,0x4
 226:	1840                	addi	s0,sp,52
 228:	0b3a0e03          	lb	t3,179(s4)
 22c:	193f0b3b          	.insn	4, 0x193f0b3b
 230:	0000                	unimp
 232:	31001d27          	.insn	4, 0x31001d27
 236:	12011113          	.insn	4, 0x12011113
 23a:	5806                	lw	a6,96(sp)
 23c:	570b590b          	.insn	4, 0x570b590b
 240:	2800000b          	.insn	4, 0x2800000b
 244:	012e                	slli	sp,sp,0xb
 246:	0111                	addi	sp,sp,4
 248:	0612                	slli	a2,a2,0x4
 24a:	1840                	addi	s0,sp,52
 24c:	1331                	addi	t1,t1,-20
 24e:	0000                	unimp
 250:	2e29                	jal	56a <core::panicking::panic_bounds_check-0xfb2a>
 252:	6e01                	.insn	2, 0x6e01
 254:	030e                	slli	t1,t1,0x3
 256:	3a0e                	.insn	2, 0x3a0e
 258:	870b3b0b          	.insn	4, 0x870b3b0b
 25c:	1901                	addi	s2,s2,-32
 25e:	0b20                	addi	s0,sp,408
 260:	0000                	unimp
 262:	012a                	slli	sp,sp,0xa
 264:	4901                	li	s2,0
 266:	2b000013          	li	zero,688
 26a:	0021                	c.nop	8
 26c:	1349                	addi	t1,t1,-14
 26e:	0d22                	slli	s10,s10,0x8
 270:	00000b37          	lui	s6,0x0
 274:	0f2c                	addi	a1,sp,920
 276:	4900                	lw	s0,16(a0)
 278:	330e0313          	addi	t1,t3,816
 27c:	0006                	c.slli	zero,0x1
 27e:	2d00                	.insn	2, 0x2d00
 280:	0115                	addi	sp,sp,5
 282:	0000                	unimp
 284:	242e                	.insn	2, 0x242e
 286:	0300                	addi	s0,sp,384
 288:	3e0e                	.insn	2, 0x3e0e
 28a:	000b0b0b          	.insn	4, 0x000b0b0b
 28e:	2f00                	.insn	2, 0x2f00
 290:	0e030113          	addi	sp,t1,224
 294:	01880b0b          	.insn	4, 0x01880b0b
 298:	3000000f          	.insn	4, 0x3000000f
 29c:	000d                	c.nop	3
 29e:	13490e03          	lb	t3,308(s2)
 2a2:	0188                	addi	a0,sp,192
 2a4:	000b380f          	.insn	4, 0x000b380f
 2a8:	3100                	.insn	2, 0x3100
 2aa:	1349000f          	.insn	4, 0x1349000f
 2ae:	00000633          	add	a2,zero,zero
 2b2:	2432                	.insn	2, 0x2432
 2b4:	0300                	addi	s0,sp,384
 2b6:	0b0e                	slli	s6,s6,0x3
 2b8:	000b3e0b          	.insn	4, 0x000b3e0b
 2bc:	3300                	.insn	2, 0x3300
 2be:	012e                	slli	sp,sp,0xb
 2c0:	0e6e                	slli	t3,t3,0x1b
 2c2:	0b3a0e03          	lb	t3,179(s4)
 2c6:	1349053b          	.insn	4, 0x1349053b
 2ca:	0b20                	addi	s0,sp,408
 2cc:	0000                	unimp
 2ce:	0534                	addi	a3,sp,648
 2d0:	0300                	addi	s0,sp,384
 2d2:	3a0e                	.insn	2, 0x3a0e
 2d4:	49053b0b          	.insn	4, 0x49053b0b
 2d8:	35000013          	li	zero,848
 2dc:	012e                	slli	sp,sp,0xb
 2de:	0e6e                	slli	t3,t3,0x1b
 2e0:	0b3a0e03          	lb	t3,179(s4)
 2e4:	0b36053b          	.insn	4, 0x0b36053b
 2e8:	1349                	addi	t1,t1,-14
 2ea:	0b20                	addi	s0,sp,408
 2ec:	0000                	unimp
 2ee:	3336                	.insn	2, 0x3336
 2f0:	1501                	addi	a0,a0,-32
 2f2:	37000013          	li	zero,880
 2f6:	000d                	c.nop	3
 2f8:	1349                	addi	t1,t1,-14
 2fa:	0188                	addi	a0,sp,192
 2fc:	340b380f          	.insn	4, 0x340b380f
 300:	0019                	c.nop	6
 302:	3800                	.insn	2, 0x3800
 304:	0119                	addi	sp,sp,6
 306:	0b16                	slli	s6,s6,0x5
 308:	0000                	unimp
 30a:	1939                	addi	s2,s2,-18
 30c:	0001                	nop
 30e:	3a00                	.insn	2, 0x3a00
 310:	0034                	addi	a3,sp,8
 312:	01880e03          	lb	t3,24(a6)
 316:	3b0b3a0f          	.insn	4, 0x3b0b3a0f
 31a:	4905                	li	s2,1
 31c:	3b000013          	li	zero,944
 320:	0e030013          	addi	zero,t1,224
 324:	0b320b0b          	.insn	4, 0x0b320b0b
 328:	0188                	addi	a0,sp,192
 32a:	3c00000f          	.insn	4, 0x3c00000f
 32e:	012e                	slli	sp,sp,0xb
 330:	0111                	addi	sp,sp,4
 332:	0612                	slli	a2,a2,0x4
 334:	1840                	addi	s0,sp,52
 336:	00001347          	.insn	4, 0x1347
 33a:	1d3d                	addi	s10,s10,-17
 33c:	3101                	jal	ffffff3c <__global_pointer$+0xfffedeb0>
 33e:	12011113          	.insn	4, 0x12011113
 342:	5806                	lw	a6,96(sp)
 344:	5705590b          	.insn	4, 0x5705590b
 348:	3e00000b          	.insn	4, 0x3e00000b
 34c:	0034                	addi	a3,sp,8
 34e:	1802                	slli	a6,a6,0x20
 350:	1331                	addi	t1,t1,-20
 352:	0000                	unimp
 354:	4901153f 40000013 	.insn	8, 0x400000134901153f
 35c:	002e                	c.slli	zero,0xb
 35e:	0111                	addi	sp,sp,4
 360:	0612                	slli	a2,a2,0x4
 362:	1840                	addi	s0,sp,52
 364:	0e6e                	slli	t3,t3,0x1b
 366:	19340e03          	lb	t3,403(s0)
 36a:	0000193f 25011141 	.insn	8, 0x250111410000193f
 372:	130e                	slli	t1,t1,0x23
 374:	0305                	addi	t1,t1,1
 376:	100e                	c.slli	zero,0x23
 378:	000e1b17          	auipc	s6,0xe1
 37c:	4200                	lw	s0,0(a2)
 37e:	0104                	addi	s1,sp,128
 380:	1349                	addi	t1,t1,-14
 382:	196d                	addi	s2,s2,-5
 384:	0b0b0e03          	lb	t3,176(s6) # e1428 <__global_pointer$+0xcf39c>
 388:	0188                	addi	a0,sp,192
 38a:	4300000f          	.insn	4, 0x4300000f
 38e:	0028                	addi	a0,sp,8
 390:	0d1c0e03          	lb	t3,209(s8)
 394:	0000                	unimp
 396:	2e44                	.insn	2, 0x2e44
 398:	1100                	addi	s0,sp,160
 39a:	1201                	addi	tp,tp,-32 # ffffffe0 <__global_pointer$+0xfffedf54>
 39c:	4006                	.insn	2, 0x4006
 39e:	6e18                	.insn	2, 0x6e18
 3a0:	030e                	slli	t1,t1,0x3
 3a2:	3a0e                	.insn	2, 0x3a0e
 3a4:	36053b0b          	.insn	4, 0x36053b0b
 3a8:	87193f0b          	.insn	4, 0x87193f0b
 3ac:	1901                	addi	s2,s2,-32
 3ae:	0000                	unimp
 3b0:	2e45                	jal	760 <core::panicking::panic_bounds_check-0xf934>
 3b2:	1101                	addi	sp,sp,-32
 3b4:	1201                	addi	tp,tp,-32 # ffffffe0 <__global_pointer$+0xfffedf54>
 3b6:	4006                	.insn	2, 0x4006
 3b8:	6e18                	.insn	2, 0x6e18
 3ba:	030e                	slli	t1,t1,0x3
 3bc:	3a0e                	.insn	2, 0x3a0e
 3be:	360b3b0b          	.insn	4, 0x360b3b0b
 3c2:	87193f0b          	.insn	4, 0x87193f0b
 3c6:	1901                	addi	s2,s2,-32
 3c8:	0000                	unimp
 3ca:	1d46                	slli	s10,s10,0x31
 3cc:	3100                	.insn	2, 0x3100
 3ce:	1110                	addi	a2,sp,160
 3d0:	1201                	addi	tp,tp,-32 # ffffffe0 <__global_pointer$+0xfffedf54>
 3d2:	5806                	lw	a6,96(sp)
 3d4:	570b590b          	.insn	4, 0x570b590b
 3d8:	4700000b          	.insn	4, 0x4700000b
 3dc:	002e                	c.slli	zero,0xb
 3de:	0111                	addi	sp,sp,4
 3e0:	0612                	slli	a2,a2,0x4
 3e2:	1840                	addi	s0,sp,52
 3e4:	0e6e                	slli	t3,t3,0x1b
 3e6:	0b3a0e03          	lb	t3,179(s4)
 3ea:	0b360b3b          	.insn	4, 0x0b360b3b
 3ee:	0187193f 00000019 	.insn	8, 0x00190187193f

Disassembly of section .debug_line:

00000000 <.debug_line>:
   0:	096e                	slli	s2,s2,0x1b
   2:	0000                	unimp
   4:	0004                	.insn	2, 0x0004
   6:	019a                	slli	gp,gp,0x6
   8:	0000                	unimp
   a:	0101                	addi	sp,sp,0
   c:	fb01                	bnez	a4,ffffff1c <__global_pointer$+0xfffede90>
   e:	0d0e                	slli	s10,s10,0x3
  10:	0100                	addi	s0,sp,128
  12:	0101                	addi	sp,sp,0
  14:	0001                	nop
  16:	0000                	unimp
  18:	0001                	nop
  1a:	0100                	addi	s0,sp,128
  1c:	00637273          	.insn	4, 0x00637273
  20:	2f637273          	.insn	4, 0x2f637273
  24:	6c6c6f63          	bltu	s8,t1,702 <core::panicking::panic_bounds_check-0xf992>
  28:	6365                	lui	t1,0x19
  2a:	6974                	.insn	2, 0x6974
  2c:	00736e6f          	jal	t3,36832 <__global_pointer$+0x247a6>
  30:	7375722f          	.insn	4, 0x7375722f
  34:	6374                	.insn	2, 0x6374
  36:	3531312f          	.insn	4, 0x3531312f
  3a:	6539                	lui	a0,0xe
  3c:	34633837          	lui	a6,0x34633
  40:	62373437          	lui	s0,0x62373
  44:	3230                	.insn	2, 0x3230
  46:	6665                	lui	a2,0x19
  48:	3939                	jal	fffffc66 <__global_pointer$+0xfffedbda>
  4a:	6536                	.insn	2, 0x6536
  4c:	3535                	jal	fffffe78 <__global_pointer$+0xfffeddec>
  4e:	3830                	.insn	2, 0x3830
  50:	6232                	.insn	2, 0x6232
  52:	63343037          	lui	zero,0x63343
  56:	3930                	.insn	2, 0x3930
  58:	3962                	.insn	2, 0x3962
  5a:	38353037          	lui	zero,0x38353
  5e:	2f38                	.insn	2, 0x2f38
  60:	696c                	.insn	2, 0x696c
  62:	7262                	.insn	2, 0x7262
  64:	7261                	lui	tp,0xffff8
  66:	2f79                	jal	804 <core::panicking::panic_bounds_check-0xf890>
  68:	65726f63          	bltu	tp,s7,6c6 <core::panicking::panic_bounds_check-0xf9ce>
  6c:	6372732f          	.insn	4, 0x6372732f
  70:	2f00                	.insn	2, 0x2f00
  72:	7572                	.insn	2, 0x7572
  74:	2f637473          	.insn	4, 0x2f637473
  78:	3131                	jal	fffffc84 <__global_pointer$+0xfffedbf8>
  7a:	3935                	jal	fffffcb6 <__global_pointer$+0xfffedc2a>
  7c:	3765                	jal	24 <core::panicking::panic_bounds_check-0x10070>
  7e:	6338                	.insn	2, 0x6338
  80:	3734                	.insn	2, 0x3734
  82:	3734                	.insn	2, 0x3734
  84:	3062                	.insn	2, 0x3062
  86:	6532                	.insn	2, 0x6532
  88:	3966                	.insn	2, 0x3966
  8a:	3639                	jal	fffffb98 <__global_pointer$+0xfffedb0c>
  8c:	3565                	jal	ffffff34 <__global_pointer$+0xfffedea8>
  8e:	3035                	jal	fffff8ba <__global_pointer$+0xfffed82e>
  90:	3238                	.insn	2, 0x3238
  92:	3762                	.insn	2, 0x3762
  94:	3430                	.insn	2, 0x3430
  96:	62393063          	.insn	4, 0x62393063
  9a:	3739                	jal	ffffffa8 <__global_pointer$+0xfffedf1c>
  9c:	3530                	.insn	2, 0x3530
  9e:	3838                	.insn	2, 0x3838
  a0:	62696c2f          	.insn	4, 0x62696c2f
  a4:	6172                	.insn	2, 0x6172
  a6:	7972                	.insn	2, 0x7972
  a8:	726f632f          	.insn	4, 0x726f632f
  ac:	2f65                	jal	864 <core::panicking::panic_bounds_check-0xf830>
  ae:	2f637273          	.insn	4, 0x2f637273
  b2:	756e                	.insn	2, 0x756e
  b4:	006d                	c.nop	27
  b6:	7375722f          	.insn	4, 0x7375722f
  ba:	6374                	.insn	2, 0x6374
  bc:	3531312f          	.insn	4, 0x3531312f
  c0:	6539                	lui	a0,0xe
  c2:	34633837          	lui	a6,0x34633
  c6:	62373437          	lui	s0,0x62373
  ca:	3230                	.insn	2, 0x3230
  cc:	6665                	lui	a2,0x19
  ce:	3939                	jal	fffffcec <__global_pointer$+0xfffedc60>
  d0:	6536                	.insn	2, 0x6536
  d2:	3535                	jal	fffffefe <__global_pointer$+0xfffede72>
  d4:	3830                	.insn	2, 0x3830
  d6:	6232                	.insn	2, 0x6232
  d8:	63343037          	lui	zero,0x63343
  dc:	3930                	.insn	2, 0x3930
  de:	3962                	.insn	2, 0x3962
  e0:	38353037          	lui	zero,0x38353
  e4:	2f38                	.insn	2, 0x2f38
  e6:	696c                	.insn	2, 0x696c
  e8:	7262                	.insn	2, 0x7262
  ea:	7261                	lui	tp,0xffff8
  ec:	2f79                	jal	88a <core::panicking::panic_bounds_check-0xf80a>
  ee:	65726f63          	bltu	tp,s7,74c <core::panicking::panic_bounds_check-0xf948>
  f2:	6372732f          	.insn	4, 0x6372732f
  f6:	696c732f          	.insn	4, 0x696c732f
  fa:	2f006563          	bltu	zero,a6,3e4 <core::panicking::panic_bounds_check-0xfcb0>
  fe:	7572                	.insn	2, 0x7572
 100:	2f637473          	.insn	4, 0x2f637473
 104:	3131                	jal	fffffd10 <__global_pointer$+0xfffedc84>
 106:	3935                	jal	fffffd42 <__global_pointer$+0xfffedcb6>
 108:	3765                	jal	b0 <core::panicking::panic_bounds_check-0xffe4>
 10a:	6338                	.insn	2, 0x6338
 10c:	3734                	.insn	2, 0x3734
 10e:	3734                	.insn	2, 0x3734
 110:	3062                	.insn	2, 0x3062
 112:	6532                	.insn	2, 0x6532
 114:	3966                	.insn	2, 0x3966
 116:	3639                	jal	fffffc24 <__global_pointer$+0xfffedb98>
 118:	3565                	jal	ffffffc0 <__global_pointer$+0xfffedf34>
 11a:	3035                	jal	fffff946 <__global_pointer$+0xfffed8ba>
 11c:	3238                	.insn	2, 0x3238
 11e:	3762                	.insn	2, 0x3762
 120:	3430                	.insn	2, 0x3430
 122:	62393063          	.insn	4, 0x62393063
 126:	3739                	jal	34 <core::panicking::panic_bounds_check-0x10060>
 128:	3530                	.insn	2, 0x3530
 12a:	3838                	.insn	2, 0x3838
 12c:	62696c2f          	.insn	4, 0x62696c2f
 130:	6172                	.insn	2, 0x6172
 132:	7972                	.insn	2, 0x7972
 134:	726f632f          	.insn	4, 0x726f632f
 138:	2f65                	jal	8f0 <core::panicking::panic_bounds_check-0xf7a4>
 13a:	2f637273          	.insn	4, 0x2f637273
 13e:	7470                	.insn	2, 0x7470
 140:	0072                	c.slli	zero,0x1c
 142:	6d00                	.insn	2, 0x6d00
 144:	6961                	lui	s2,0x18
 146:	2e6e                	.insn	2, 0x2e6e
 148:	7372                	.insn	2, 0x7372
 14a:	0100                	addi	s0,sp,128
 14c:	0000                	unimp
 14e:	6972                	.insn	2, 0x6972
 150:	676e                	.insn	2, 0x676e
 152:	625f 6675 6566      	.insn	6, 0x65666675625f
 158:	2e72                	.insn	2, 0x2e72
 15a:	7372                	.insn	2, 0x7372
 15c:	0200                	addi	s0,sp,256
 15e:	0000                	unimp
 160:	6968                	.insn	2, 0x6968
 162:	746e                	.insn	2, 0x746e
 164:	722e                	.insn	2, 0x722e
 166:	00030073          	.insn	4, 0x00030073
 16a:	7500                	.insn	2, 0x7500
 16c:	6e69                	lui	t3,0x1a
 16e:	5f74                	lw	a3,124(a4)
 170:	616d                	addi	sp,sp,240
 172:	736f7263          	bgeu	t5,s6,896 <core::panicking::panic_bounds_check-0xf7fe>
 176:	722e                	.insn	2, 0x722e
 178:	00040073          	.insn	4, 0x00040073
 17c:	6900                	.insn	2, 0x6900
 17e:	646e                	.insn	2, 0x646e
 180:	7865                	lui	a6,0xffff9
 182:	722e                	.insn	2, 0x722e
 184:	00050073          	.insn	4, 0x00050073
 188:	6300                	.insn	2, 0x6300
 18a:	74736e6f          	jal	t3,370d0 <__global_pointer$+0x25044>
 18e:	705f 7274 722e      	.insn	6, 0x722e7274705f
 194:	00060073          	.insn	4, 0x00060073
 198:	6d00                	.insn	2, 0x6d00
 19a:	722e646f          	jal	s0,e68bc <__global_pointer$+0xd4830>
 19e:	00050073          	.insn	4, 0x00050073
 1a2:	0000                	unimp
 1a4:	0204                	addi	s1,sp,256
 1a6:	1405                	addi	s0,s0,-31 # 62372fe1 <__global_pointer$+0x62360f55>
 1a8:	000a                	c.slli	zero,0x2
 1aa:	0205                	addi	tp,tp,1 # ffff8001 <__global_pointer$+0xfffe5f75>
 1ac:	00b6                	slli	ra,ra,0xd
 1ae:	0001                	nop
 1b0:	03011003          	lh	zero,48(sp)
 1b4:	0901                	addi	s2,s2,0 # 18000 <__global_pointer$+0x5f74>
 1b6:	0002                	c.slli64	zero
 1b8:	0501                	addi	a0,a0,0 # e000 <core::panicking::panic_bounds_check-0x2094>
 1ba:	0309                	addi	t1,t1,2 # 19002 <__global_pointer$+0x6f76>
 1bc:	00d6                	slli	ra,ra,0x15
 1be:	0209                	addi	tp,tp,2 # 2 <core::panicking::panic_bounds_check-0x10092>
 1c0:	0100                	addi	s0,sp,128
 1c2:	0605                	addi	a2,a2,1 # 19001 <__global_pointer$+0x6f75>
 1c4:	06090103          	lb	sp,96(s2)
 1c8:	0100                	addi	s0,sp,128
 1ca:	0209                	addi	tp,tp,2 # 2 <core::panicking::panic_bounds_check-0x10092>
 1cc:	0000                	unimp
 1ce:	0101                	addi	sp,sp,0
 1d0:	0204                	addi	s1,sp,256
 1d2:	0500                	addi	s0,sp,640
 1d4:	c202                	sw	zero,4(sp)
 1d6:	0100                	addi	s0,sp,128
 1d8:	0300                	addi	s0,sp,384
 1da:	050101cf          	.insn	4, 0x050101cf
 1de:	0a18                	addi	a4,sp,272
 1e0:	097ec003          	lbu	zero,151(t4)
 1e4:	0002                	c.slli64	zero
 1e6:	0501                	addi	a0,a0,0
 1e8:	0314                	addi	a3,sp,384
 1ea:	0901                	addi	s2,s2,0
 1ec:	0004                	.insn	2, 0x0004
 1ee:	0301                	addi	t1,t1,0
 1f0:	0901                	addi	s2,s2,0
 1f2:	0002                	c.slli64	zero
 1f4:	0601                	addi	a2,a2,0
 1f6:	02096e03          	.insn	4, 0x02096e03
 1fa:	0100                	addi	s0,sp,128
 1fc:	0f05                	addi	t5,t5,1
 1fe:	0306                	slli	t1,t1,0x1
 200:	020901d7          	.insn	4, 0x020901d7
 204:	0100                	addi	s0,sp,128
 206:	1205                	addi	tp,tp,-31 # ffffffe1 <__global_pointer$+0xfffedf55>
 208:	04090103          	lb	sp,64(s2)
 20c:	0100                	addi	s0,sp,128
 20e:	0104                	addi	s1,sp,128
 210:	2b05                	jal	740 <core::panicking::panic_bounds_check-0xf954>
 212:	097ee303          	.insn	4, 0x097ee303
 216:	0006                	c.slli	zero,0x1
 218:	0401                	addi	s0,s0,0
 21a:	0502                	c.slli64	a0
 21c:	0310                	addi	a2,sp,384
 21e:	019d                	addi	gp,gp,7 # e250007 <__global_pointer$+0xe23df7b>
 220:	0209                	addi	tp,tp,2 # 2 <core::panicking::panic_bounds_check-0x10092>
 222:	0100                	addi	s0,sp,128
 224:	1405                	addi	s0,s0,-31
 226:	04090e03          	lb	t3,64(s2)
 22a:	0100                	addi	s0,sp,128
 22c:	0d05                	addi	s10,s10,1
 22e:	0306                	slli	t1,t1,0x1
 230:	0900                	addi	s0,sp,144
 232:	0002                	c.slli64	zero
 234:	0501                	addi	a0,a0,0
 236:	7103060f          	.insn	4, 0x7103060f
 23a:	0c09                	addi	s8,s8,2
 23c:	0100                	addi	s0,sp,128
 23e:	0306                	slli	t1,t1,0x1
 240:	7ea9                	lui	t4,0xfffea
 242:	0409                	addi	s0,s0,2
 244:	0100                	addi	s0,sp,128
 246:	0605                	addi	a2,a2,1
 248:	0306                	slli	t1,t1,0x1
 24a:	01e9                	addi	gp,gp,26 # 120a6 <__global_pointer$+0x1a>
 24c:	0209                	addi	tp,tp,2 # 2 <core::panicking::panic_bounds_check-0x10092>
 24e:	0100                	addi	s0,sp,128
 250:	2705                	jal	970 <core::panicking::panic_bounds_check-0xf724>
 252:	02097603          	.insn	4, 0x02097603
 256:	0100                	addi	s0,sp,128
 258:	1505                	addi	a0,a0,-31
 25a:	0306                	slli	t1,t1,0x1
 25c:	0900                	addi	s0,sp,144
 25e:	0008                	.insn	2, 0x0008
 260:	0301                	addi	t1,t1,0
 262:	7ea1                	lui	t4,0xfffe8
 264:	0609                	addi	a2,a2,2
 266:	0100                	addi	s0,sp,128
 268:	1705                	addi	a4,a4,-31
 26a:	0306                	slli	t1,t1,0x1
 26c:	01de                	slli	gp,gp,0x17
 26e:	0a09                	addi	s4,s4,2
 270:	0100                	addi	s0,sp,128
 272:	1105                	addi	sp,sp,-31
 274:	04090503          	lb	a0,64(s2)
 278:	0100                	addi	s0,sp,128
 27a:	0605                	addi	a2,a2,1
 27c:	04090603          	lb	a2,64(s2)
 280:	0100                	addi	s0,sp,128
 282:	0209                	addi	tp,tp,2 # 2 <core::panicking::panic_bounds_check-0x10092>
 284:	0000                	unimp
 286:	0101                	addi	sp,sp,0
 288:	0204                	addi	s1,sp,256
 28a:	1405                	addi	s0,s0,-31
 28c:	000a                	c.slli	zero,0x2
 28e:	0205                	addi	tp,tp,1 # 1 <core::panicking::panic_bounds_check-0x10093>
 290:	0116                	slli	sp,sp,0x5
 292:	0001                	nop
 294:	03011003          	lh	zero,48(sp)
 298:	0901                	addi	s2,s2,0
 29a:	0002                	c.slli64	zero
 29c:	0501                	addi	a0,a0,0
 29e:	030c                	addi	a1,sp,384
 2a0:	00e4                	addi	s1,sp,76
 2a2:	0209                	addi	tp,tp,2 # 2 <core::panicking::panic_bounds_check-0x10092>
 2a4:	0100                	addi	s0,sp,128
 2a6:	0d05                	addi	s10,s10,1
 2a8:	04090103          	lb	sp,64(s2)
 2ac:	0100                	addi	s0,sp,128
 2ae:	0605                	addi	a2,a2,1
 2b0:	04090703          	lb	a4,64(s2)
 2b4:	0100                	addi	s0,sp,128
 2b6:	1305                	addi	t1,t1,-31
 2b8:	02097a03          	.insn	4, 0x02097a03
 2bc:	0100                	addi	s0,sp,128
 2be:	0306                	slli	t1,t1,0x1
 2c0:	7f88                	.insn	2, 0x7f88
 2c2:	0409                	addi	s0,s0,2
 2c4:	0100                	addi	s0,sp,128
 2c6:	0d05                	addi	s10,s10,1
 2c8:	0306                	slli	t1,t1,0x1
 2ca:	00f9                	addi	ra,ra,30
 2cc:	0209                	addi	tp,tp,2 # 2 <core::panicking::panic_bounds_check-0x10092>
 2ce:	0100                	addi	s0,sp,128
 2d0:	0605                	addi	a2,a2,1
 2d2:	04090503          	lb	a0,64(s2)
 2d6:	0100                	addi	s0,sp,128
 2d8:	0306                	slli	t1,t1,0x1
 2da:	7f82                	.insn	2, 0x7f82
 2dc:	0209                	addi	tp,tp,2 # 2 <core::panicking::panic_bounds_check-0x10092>
 2de:	0100                	addi	s0,sp,128
 2e0:	0306                	slli	t1,t1,0x1
 2e2:	00fe                	slli	ra,ra,0x1f
 2e4:	0209                	addi	tp,tp,2 # 2 <core::panicking::panic_bounds_check-0x10092>
 2e6:	0100                	addi	s0,sp,128
 2e8:	0209                	addi	tp,tp,2 # 2 <core::panicking::panic_bounds_check-0x10092>
 2ea:	0000                	unimp
 2ec:	0101                	addi	sp,sp,0
 2ee:	0204                	addi	s1,sp,256
 2f0:	0500                	addi	s0,sp,640
 2f2:	3402                	.insn	2, 0x3402
 2f4:	0101                	addi	sp,sp,0
 2f6:	0300                	addi	s0,sp,384
 2f8:	01a1                	addi	gp,gp,8 # 12094 <__global_pointer$+0x8>
 2fa:	0501                	addi	a0,a0,0
 2fc:	0a18                	addi	a4,sp,272
 2fe:	097eee03          	.insn	4, 0x097eee03
 302:	0010                	.insn	2, 0x0010
 304:	0501                	addi	a0,a0,0
 306:	0314                	addi	a3,sp,384
 308:	0901                	addi	s2,s2,0
 30a:	0004                	.insn	2, 0x0004
 30c:	0301                	addi	t1,t1,0
 30e:	0901                	addi	s2,s2,0
 310:	0002                	c.slli64	zero
 312:	0601                	addi	a2,a2,0
 314:	04096e03          	.insn	4, 0x04096e03
 318:	0100                	addi	s0,sp,128
 31a:	1e05                	addi	t3,t3,-31 # 19fe1 <__global_pointer$+0x7f55>
 31c:	0306                	slli	t1,t1,0x1
 31e:	01a4                	addi	s1,sp,200
 320:	0209                	addi	tp,tp,2 # 2 <core::panicking::panic_bounds_check-0x10092>
 322:	0100                	addi	s0,sp,128
 324:	0905                	addi	s2,s2,1
 326:	08090803          	lb	a6,128(s2)
 32a:	0100                	addi	s0,sp,128
 32c:	1905                	addi	s2,s2,-31
 32e:	02097803          	.insn	4, 0x02097803
 332:	0100                	addi	s0,sp,128
 334:	02090203          	lb	tp,32(s2)
 338:	0100                	addi	s0,sp,128
 33a:	1705                	addi	a4,a4,-31
 33c:	04097f03          	.insn	4, 0x04097f03
 340:	0100                	addi	s0,sp,128
 342:	0d05                	addi	s10,s10,1
 344:	04090103          	lb	sp,64(s2)
 348:	0100                	addi	s0,sp,128
 34a:	1705                	addi	a4,a4,-31
 34c:	04097f03          	.insn	4, 0x04097f03
 350:	0100                	addi	s0,sp,128
 352:	0d05                	addi	s10,s10,1
 354:	02090103          	lb	sp,32(s2)
 358:	0100                	addi	s0,sp,128
 35a:	0905                	addi	s2,s2,1
 35c:	0e090603          	lb	a2,224(s2)
 360:	0100                	addi	s0,sp,128
 362:	1505                	addi	a0,a0,-31
 364:	04090103          	lb	sp,64(s2)
 368:	0100                	addi	s0,sp,128
 36a:	0905                	addi	s2,s2,1
 36c:	02097f03          	.insn	4, 0x02097f03
 370:	0100                	addi	s0,sp,128
 372:	02090103          	lb	sp,32(s2)
 376:	0100                	addi	s0,sp,128
 378:	04097f03          	.insn	4, 0x04097f03
 37c:	0100                	addi	s0,sp,128
 37e:	04090103          	lb	sp,64(s2)
 382:	0100                	addi	s0,sp,128
 384:	0605                	addi	a2,a2,1
 386:	0902030b          	.insn	4, 0x0902030b
 38a:	000c                	.insn	2, 0x000c
 38c:	0901                	addi	s2,s2,0
 38e:	0010                	.insn	2, 0x0010
 390:	0100                	addi	s0,sp,128
 392:	0401                	addi	s0,s0,0
 394:	0502                	c.slli64	a0
 396:	0a09                	addi	s4,s4,2
 398:	0500                	addi	s0,sp,640
 39a:	a402                	.insn	2, 0xa402
 39c:	0101                	addi	sp,sp,0
 39e:	0300                	addi	s0,sp,384
 3a0:	01f0                	addi	a2,sp,204
 3a2:	0301                	addi	t1,t1,0
 3a4:	0901                	addi	s2,s2,0
 3a6:	0004                	.insn	2, 0x0004
 3a8:	0501                	addi	a0,a0,0
 3aa:	0306                	slli	t1,t1,0x1
 3ac:	0901                	addi	s2,s2,0
 3ae:	0002                	c.slli64	zero
 3b0:	0901                	addi	s2,s2,0
 3b2:	0002                	c.slli64	zero
 3b4:	0100                	addi	s0,sp,128
 3b6:	0401                	addi	s0,s0,0
 3b8:	0002                	c.slli64	zero
 3ba:	0205                	addi	tp,tp,1 # 1 <core::panicking::panic_bounds_check-0x10093>
 3bc:	01ac                	addi	a1,sp,200
 3be:	0001                	nop
 3c0:	0101f803          	.insn	4, 0x0101f803
 3c4:	1805                	addi	a6,a6,-31 # ffff8fe1 <__global_pointer$+0xfffe6f55>
 3c6:	030a                	slli	t1,t1,0x2
 3c8:	06097e97          	auipc	t4,0x6097
 3cc:	0100                	addi	s0,sp,128
 3ce:	1405                	addi	s0,s0,-31
 3d0:	02090103          	lb	sp,32(s2)
 3d4:	0100                	addi	s0,sp,128
 3d6:	04090103          	lb	sp,64(s2)
 3da:	0100                	addi	s0,sp,128
 3dc:	0306                	slli	t1,t1,0x1
 3de:	096e                	slli	s2,s2,0x1b
 3e0:	0004                	.insn	2, 0x0004
 3e2:	0501                	addi	a0,a0,0
 3e4:	8403060f          	.insn	4, 0x8403060f
 3e8:	0902                	c.slli64	s2
 3ea:	0012                	c.slli	zero,0x4
 3ec:	0501                	addi	a0,a0,0
 3ee:	0312                	slli	t1,t1,0x4
 3f0:	0901                	addi	s2,s2,0
 3f2:	0004                	.insn	2, 0x0004
 3f4:	0401                	addi	s0,s0,0
 3f6:	0301                	addi	t1,t1,0
 3f8:	7eba                	.insn	2, 0x7eba
 3fa:	0609                	addi	a2,a2,2
 3fc:	0100                	addi	s0,sp,128
 3fe:	0304                	addi	s1,sp,384
 400:	0505                	addi	a0,a0,1
 402:	0903a303          	lw	t1,144(t2) # 80000090 <__global_pointer$+0x7ffee004>
 406:	0002                	c.slli64	zero
 408:	0601                	addi	a2,a2,0
 40a:	02090003          	lb	zero,32(s2)
 40e:	0100                	addi	s0,sp,128
 410:	02090003          	lb	zero,32(s2)
 414:	0100                	addi	s0,sp,128
 416:	02090003          	lb	zero,32(s2)
 41a:	0100                	addi	s0,sp,128
 41c:	0104                	addi	s1,sp,128
 41e:	1b05                	addi	s6,s6,-31
 420:	0306                	slli	t1,t1,0x1
 422:	7cdd                	lui	s9,0xffff7
 424:	0209                	addi	tp,tp,2 # 2 <core::panicking::panic_bounds_check-0x10092>
 426:	0100                	addi	s0,sp,128
 428:	0204                	addi	s1,sp,256
 42a:	1005                	c.nop	-31
 42c:	0901c603          	lbu	a2,144(gp) # 1211c <__global_pointer$+0x90>
 430:	000e                	c.slli	zero,0x3
 432:	0501                	addi	a0,a0,0
 434:	0314                	addi	a3,sp,384
 436:	00020903          	lb	s2,0(tp) # 0 <core::panicking::panic_bounds_check-0x10094>
 43a:	0501                	addi	a0,a0,0
 43c:	0315                	addi	t1,t1,5
 43e:	0901                	addi	s2,s2,0
 440:	0004                	.insn	2, 0x0004
 442:	0501                	addi	a0,a0,0
 444:	0626                	slli	a2,a2,0x9
 446:	04090003          	lb	zero,64(s2)
 44a:	0100                	addi	s0,sp,128
 44c:	1505                	addi	a0,a0,-31
 44e:	02090003          	lb	zero,32(s2)
 452:	0100                	addi	s0,sp,128
 454:	1705                	addi	a4,a4,-31
 456:	0306                	slli	t1,t1,0x1
 458:	0902                	c.slli64	s2
 45a:	0008                	.insn	2, 0x0008
 45c:	0501                	addi	a0,a0,0
 45e:	0611                	addi	a2,a2,4
 460:	02090003          	lb	zero,32(s2)
 464:	0100                	addi	s0,sp,128
 466:	1305                	addi	t1,t1,-31
 468:	0306                	slli	t1,t1,0x1
 46a:	0902                	c.slli64	s2
 46c:	0004                	.insn	2, 0x0004
 46e:	0501                	addi	a0,a0,0
 470:	060d                	addi	a2,a2,3
 472:	02090003          	lb	zero,32(s2)
 476:	0100                	addi	s0,sp,128
 478:	0f05                	addi	t5,t5,1
 47a:	0306                	slli	t1,t1,0x1
 47c:	000c0977          	.insn	4, 0x000c0977
 480:	0501                	addi	a0,a0,0
 482:	0309                	addi	t1,t1,2
 484:	090c                	addi	a1,sp,144
 486:	0004                	.insn	2, 0x0004
 488:	0501                	addi	a0,a0,0
 48a:	0b06                	slli	s6,s6,0x1
 48c:	04090103          	lb	sp,64(s2)
 490:	0100                	addi	s0,sp,128
 492:	0104                	addi	s1,sp,128
 494:	1b05                	addi	s6,s6,-31
 496:	097eae03          	lw	t3,151(t4) # 609745f <__global_pointer$+0x60853d3>
 49a:	0004                	.insn	2, 0x0004
 49c:	0401                	addi	s0,s0,0
 49e:	0502                	c.slli64	a0
 4a0:	0315                	addi	t1,t1,5
 4a2:	01ca                	slli	gp,gp,0x12
 4a4:	0809                	addi	a6,a6,2
 4a6:	0100                	addi	s0,sp,128
 4a8:	0a09                	addi	s4,s4,2
 4aa:	0000                	unimp
 4ac:	0101                	addi	sp,sp,0
 4ae:	0204                	addi	s1,sp,256
 4b0:	0500                	addi	s0,sp,640
 4b2:	3602                	.insn	2, 0x3602
 4b4:	0102                	c.slli64	sp
 4b6:	0300                	addi	s0,sp,384
 4b8:	01b9                	addi	gp,gp,14 # 1209a <__global_pointer$+0xe>
 4ba:	0501                	addi	a0,a0,0
 4bc:	0a18                	addi	a4,sp,272
 4be:	097ed603          	lhu	a2,151(t4)
 4c2:	000c                	.insn	2, 0x000c
 4c4:	0501                	addi	a0,a0,0
 4c6:	0314                	addi	a3,sp,384
 4c8:	0901                	addi	s2,s2,0
 4ca:	0004                	.insn	2, 0x0004
 4cc:	0501                	addi	a0,a0,0
 4ce:	0311                	addi	t1,t1,4
 4d0:	020901ab          	.insn	4, 0x020901ab
 4d4:	0100                	addi	s0,sp,128
 4d6:	0c05                	addi	s8,s8,1
 4d8:	0306                	slli	t1,t1,0x1
 4da:	0900                	addi	s0,sp,144
 4dc:	0008                	.insn	2, 0x0008
 4de:	0501                	addi	a0,a0,0
 4e0:	0619                	addi	a2,a2,6
 4e2:	02090203          	lb	tp,32(s2)
 4e6:	0100                	addi	s0,sp,128
 4e8:	1705                	addi	a4,a4,-31
 4ea:	04097f03          	.insn	4, 0x04097f03
 4ee:	0100                	addi	s0,sp,128
 4f0:	0d05                	addi	s10,s10,1
 4f2:	04090103          	lb	sp,64(s2)
 4f6:	0100                	addi	s0,sp,128
 4f8:	1705                	addi	a4,a4,-31
 4fa:	08097f03          	.insn	4, 0x08097f03
 4fe:	0100                	addi	s0,sp,128
 500:	0d05                	addi	s10,s10,1
 502:	04090103          	lb	sp,64(s2)
 506:	0100                	addi	s0,sp,128
 508:	0905                	addi	s2,s2,1
 50a:	08097e03          	.insn	4, 0x08097e03
 50e:	0100                	addi	s0,sp,128
 510:	0605                	addi	a2,a2,1
 512:	0907030b          	.insn	4, 0x0907030b
 516:	0002                	c.slli64	zero
 518:	0901                	addi	s2,s2,0
 51a:	000c                	.insn	2, 0x000c
 51c:	0100                	addi	s0,sp,128
 51e:	0401                	addi	s0,s0,0
 520:	0002                	c.slli64	zero
 522:	0205                	addi	tp,tp,1 # 1 <core::panicking::panic_bounds_check-0x10093>
 524:	027c                	addi	a5,sp,268
 526:	0001                	nop
 528:	01018a03          	lb	s4,16(gp) # 1209c <__global_pointer$+0x10>
 52c:	1805                	addi	a6,a6,-31
 52e:	030a                	slli	t1,t1,0x2
 530:	7f85                	lui	t6,0xfffe1
 532:	0e09                	addi	t3,t3,2
 534:	0100                	addi	s0,sp,128
 536:	1405                	addi	s0,s0,-31
 538:	04090203          	lb	tp,64(s2)
 53c:	0100                	addi	s0,sp,128
 53e:	0306                	slli	t1,t1,0x1
 540:	096e                	slli	s2,s2,0x1b
 542:	0002                	c.slli64	zero
 544:	0501                	addi	a0,a0,0
 546:	0611                	addi	a2,a2,4
 548:	09018d03          	lb	s10,144(gp) # 1211c <__global_pointer$+0x90>
 54c:	0002                	c.slli64	zero
 54e:	0501                	addi	a0,a0,0
 550:	060c                	addi	a1,sp,768
 552:	08090003          	lb	zero,128(s2)
 556:	0100                	addi	s0,sp,128
 558:	0d05                	addi	s10,s10,1
 55a:	0306                	slli	t1,t1,0x1
 55c:	0904                	addi	s1,sp,144
 55e:	0002                	c.slli64	zero
 560:	0501                	addi	a0,a0,0
 562:	0319                	addi	t1,t1,6
 564:	0901                	addi	s2,s2,0
 566:	0006                	c.slli	zero,0x1
 568:	0501                	addi	a0,a0,0
 56a:	060d                	addi	a2,a2,3
 56c:	02090003          	lb	zero,32(s2)
 570:	0100                	addi	s0,sp,128
 572:	0306                	slli	t1,t1,0x1
 574:	097f 000a 0301 0901 	.insn	10, 0x000209010301000a097f
 57c:	0002 
 57e:	0301                	addi	t1,t1,0
 580:	097f 0002 0301 0901 	.insn	10, 0x0004090103010002097f
 588:	0004 
 58a:	0501                	addi	a0,a0,0
 58c:	0306                	slli	t1,t1,0x1
 58e:	00020903          	lb	s2,0(tp) # 0 <core::panicking::panic_bounds_check-0x10094>
 592:	0601                	addi	a2,a2,0
 594:	0900030b          	.insn	4, 0x0900030b
 598:	0004                	.insn	2, 0x0004
 59a:	0901                	addi	s2,s2,0
 59c:	000e                	c.slli	zero,0x3
 59e:	0100                	addi	s0,sp,128
 5a0:	0401                	addi	s0,s0,0
 5a2:	0502                	c.slli64	a0
 5a4:	0a14                	addi	a3,sp,272
 5a6:	0500                	addi	s0,sp,640
 5a8:	ca02                	sw	zero,20(sp)
 5aa:	0102                	c.slli64	sp
 5ac:	0300                	addi	s0,sp,384
 5ae:	0111                	addi	sp,sp,4
 5b0:	1805                	addi	a6,a6,-31
 5b2:	02097e03          	.insn	4, 0x02097e03
 5b6:	0100                	addi	s0,sp,128
 5b8:	1405                	addi	s0,s0,-31
 5ba:	02090103          	lb	sp,32(s2)
 5be:	0100                	addi	s0,sp,128
 5c0:	1705                	addi	a4,a4,-31
 5c2:	0900de03          	lhu	t3,144(ra)
 5c6:	0002                	c.slli64	zero
 5c8:	0501                	addi	a0,a0,0
 5ca:	0616                	slli	a2,a2,0x5
 5cc:	02090003          	lb	zero,32(s2)
 5d0:	0100                	addi	s0,sp,128
 5d2:	0905                	addi	s2,s2,1
 5d4:	0a090003          	lb	zero,160(s2)
 5d8:	0100                	addi	s0,sp,128
 5da:	0605                	addi	a2,a2,1
 5dc:	0306                	slli	t1,t1,0x1
 5de:	0901                	addi	s2,s2,0
 5e0:	0006                	c.slli	zero,0x1
 5e2:	0901                	addi	s2,s2,0
 5e4:	0002                	c.slli64	zero
 5e6:	0100                	addi	s0,sp,128
 5e8:	0401                	addi	s0,s0,0
 5ea:	0002                	c.slli64	zero
 5ec:	0205                	addi	tp,tp,1 # 1 <core::panicking::panic_bounds_check-0x10093>
 5ee:	02e4                	addi	s1,sp,332
 5f0:	0001                	nop
 5f2:	05013d03          	.insn	4, 0x05013d03
 5f6:	0a18                	addi	a4,sp,272
 5f8:	06095203          	lhu	tp,96(s2)
 5fc:	0100                	addi	s0,sp,128
 5fe:	2c05                	jal	82e <core::panicking::panic_bounds_check-0xf866>
 600:	02093203          	.insn	4, 0x02093203
 604:	0100                	addi	s0,sp,128
 606:	0404                	addi	s1,sp,512
 608:	0d05                	addi	s10,s10,1
 60a:	090eea03          	.insn	4, 0x090eea03
 60e:	0008                	.insn	2, 0x0008
 610:	0401                	addi	s0,s0,0
 612:	0502                	c.slli64	a0
 614:	0b06                	slli	s6,s6,0x1
 616:	09719703          	lh	a4,151(gp) # 12123 <__global_pointer$+0x97>
 61a:	000e                	c.slli	zero,0x3
 61c:	0901                	addi	s2,s2,0
 61e:	0008                	.insn	2, 0x0008
 620:	0100                	addi	s0,sp,128
 622:	0401                	addi	s0,s0,0
 624:	0002                	c.slli64	zero
 626:	0205                	addi	tp,tp,1 # 1 <core::panicking::panic_bounds_check-0x10093>
 628:	030a                	slli	t1,t1,0x2
 62a:	0001                	nop
 62c:	05013303          	.insn	4, 0x05013303
 630:	0a09                	addi	s4,s4,2
 632:	02090103          	lb	sp,32(s2)
 636:	0100                	addi	s0,sp,128
 638:	0605                	addi	a2,a2,1
 63a:	0a090503          	lb	a0,160(s2)
 63e:	0100                	addi	s0,sp,128
 640:	0209                	addi	tp,tp,2 # 2 <core::panicking::panic_bounds_check-0x10092>
 642:	0000                	unimp
 644:	0101                	addi	sp,sp,0
 646:	0204                	addi	s1,sp,256
 648:	1405                	addi	s0,s0,-31
 64a:	000a                	c.slli	zero,0x2
 64c:	0205                	addi	tp,tp,1 # 1 <core::panicking::panic_bounds_check-0x10093>
 64e:	0318                	addi	a4,sp,384
 650:	0001                	nop
 652:	03011003          	lh	zero,48(sp)
 656:	0901                	addi	s2,s2,0
 658:	0002                	c.slli64	zero
 65a:	0501                	addi	a0,a0,0
 65c:	030c                	addi	a1,sp,384
 65e:	0002093f 03140501 	.insn	8, 0x031405010002093f
 666:	0901                	addi	s2,s2,0
 668:	0004                	.insn	2, 0x0004
 66a:	0401                	addi	s0,s0,0
 66c:	0504                	addi	s1,sp,640
 66e:	031f 04d8 0209      	.insn	6, 0x020904d8031f
 674:	0100                	addi	s0,sp,128
 676:	0504                	addi	s1,sp,640
 678:	1805                	addi	a6,a6,-31
 67a:	097bb703          	.insn	4, 0x097bb703
 67e:	0002                	c.slli64	zero
 680:	0401                	addi	s0,s0,0
 682:	0502                	c.slli64	a0
 684:	030d                	addi	t1,t1,3
 686:	0971                	addi	s2,s2,28
 688:	0004                	.insn	2, 0x0004
 68a:	0501                	addi	a0,a0,0
 68c:	09010313          	addi	t1,sp,144
 690:	0006                	c.slli	zero,0x1
 692:	0501                	addi	a0,a0,0
 694:	0600                	addi	s0,sp,768
 696:	097fad03          	lw	s10,151(t6) # fffe1097 <__global_pointer$+0xfffcf00b>
 69a:	0004                	.insn	2, 0x0004
 69c:	0501                	addi	a0,a0,0
 69e:	0621                	addi	a2,a2,8
 6a0:	0900d403          	lhu	s0,144(ra)
 6a4:	0002                	c.slli64	zero
 6a6:	0401                	addi	s0,s0,0
 6a8:	0506                	slli	a0,a0,0x1
 6aa:	0312                	slli	t1,t1,0x4
 6ac:	020906bf 07040100 	.insn	8, 0x07040100020906bf
 6b4:	4a05                	li	s4,1
 6b6:	0908ec03          	.insn	4, 0x0908ec03
 6ba:	0004                	.insn	2, 0x0004
 6bc:	0401                	addi	s0,s0,0
 6be:	0502                	c.slli64	a0
 6c0:	0314                	addi	a3,sp,384
 6c2:	70d8                	.insn	2, 0x70d8
 6c4:	0209                	addi	tp,tp,2 # 2 <core::panicking::panic_bounds_check-0x10092>
 6c6:	0100                	addi	s0,sp,128
 6c8:	0604                	addi	s1,sp,768
 6ca:	1205                	addi	tp,tp,-31 # ffffffe1 <__global_pointer$+0xfffedf55>
 6cc:	0906bc03          	.insn	4, 0x0906bc03
 6d0:	0006                	c.slli	zero,0x1
 6d2:	0401                	addi	s0,s0,0
 6d4:	0502                	c.slli64	a0
 6d6:	0314                	addi	a3,sp,384
 6d8:	79c4                	.insn	2, 0x79c4
 6da:	0209                	addi	tp,tp,2 # 2 <core::panicking::panic_bounds_check-0x10092>
 6dc:	0100                	addi	s0,sp,128
 6de:	0d05                	addi	s10,s10,1
 6e0:	02097e03          	.insn	4, 0x02097e03
 6e4:	0100                	addi	s0,sp,128
 6e6:	0605                	addi	a2,a2,1
 6e8:	08090b03          	lb	s6,128(s2)
 6ec:	0100                	addi	s0,sp,128
 6ee:	0d05                	addi	s10,s10,1
 6f0:	02097e03          	.insn	4, 0x02097e03
 6f4:	0100                	addi	s0,sp,128
 6f6:	0005                	c.nop	1
 6f8:	0306                	slli	t1,t1,0x1
 6fa:	7fa2                	.insn	2, 0x7fa2
 6fc:	0409                	addi	s0,s0,2
 6fe:	0100                	addi	s0,sp,128
 700:	0605                	addi	a2,a2,1
 702:	0306                	slli	t1,t1,0x1
 704:	00e0                	addi	s0,sp,76
 706:	0409                	addi	s0,s0,2
 708:	0100                	addi	s0,sp,128
 70a:	0209                	addi	tp,tp,2 # 2 <core::panicking::panic_bounds_check-0x10092>
 70c:	0000                	unimp
 70e:	0101                	addi	sp,sp,0
 710:	0205                	addi	tp,tp,1 # 1 <core::panicking::panic_bounds_check-0x10093>
 712:	000a                	c.slli	zero,0x2
 714:	0205                	addi	tp,tp,1 # 1 <core::panicking::panic_bounds_check-0x10093>
 716:	0000                	unimp
 718:	0000                	unimp
 71a:	0100c903          	lbu	s2,16(ra)
 71e:	0009                	c.nop	2
 720:	0000                	unimp
 722:	0101                	addi	sp,sp,0
 724:	0500                	addi	s0,sp,640
 726:	5a02                	lw	s4,32(sp)
 728:	03000103          	lb	sp,48(zero) # 30 <core::panicking::panic_bounds_check-0x10064>
 72c:	00cc                	addi	a1,sp,68
 72e:	0501                	addi	a0,a0,0
 730:	02030a17          	auipc	s4,0x2030
 734:	0409                	addi	s0,s0,2
 736:	0100                	addi	s0,sp,128
 738:	1305                	addi	t1,t1,-31
 73a:	0e090103          	lb	sp,224(s2)
 73e:	0100                	addi	s0,sp,128
 740:	0505                	addi	a0,a0,1
 742:	0c090203          	lb	tp,192(s2)
 746:	0100                	addi	s0,sp,128
 748:	0a090103          	lb	sp,160(s2)
 74c:	0100                	addi	s0,sp,128
 74e:	0a090103          	lb	sp,160(s2)
 752:	0100                	addi	s0,sp,128
 754:	0a090103          	lb	sp,160(s2)
 758:	0100                	addi	s0,sp,128
 75a:	0a090103          	lb	sp,160(s2)
 75e:	0100                	addi	s0,sp,128
 760:	0a090103          	lb	sp,160(s2)
 764:	0100                	addi	s0,sp,128
 766:	0a090103          	lb	sp,160(s2)
 76a:	0100                	addi	s0,sp,128
 76c:	0a090103          	lb	sp,160(s2)
 770:	0100                	addi	s0,sp,128
 772:	0a090103          	lb	sp,160(s2)
 776:	0100                	addi	s0,sp,128
 778:	0905                	addi	s2,s2,1
 77a:	0a096503          	.insn	4, 0x0a096503
 77e:	0100                	addi	s0,sp,128
 780:	0a090403          	lb	s0,160(s2)
 784:	0100                	addi	s0,sp,128
 786:	0505                	addi	a0,a0,1
 788:	0a091a03          	lh	s4,160(s2)
 78c:	0100                	addi	s0,sp,128
 78e:	0209                	addi	tp,tp,2 # 2 <core::panicking::panic_bounds_check-0x10092>
 790:	0000                	unimp
 792:	0101                	addi	sp,sp,0
 794:	0505                	addi	a0,a0,1
 796:	000a                	c.slli	zero,0x2
 798:	0205                	addi	tp,tp,1 # 1 <core::panicking::panic_bounds_check-0x10093>
 79a:	03e8                	addi	a0,sp,460
 79c:	0001                	nop
 79e:	0100f503          	.insn	4, 0x0100f503
 7a2:	0809                	addi	a6,a6,2
 7a4:	0000                	unimp
 7a6:	0101                	addi	sp,sp,0
 7a8:	2e05                	jal	ad8 <core::panicking::panic_bounds_check-0xf5bc>
 7aa:	000a                	c.slli	zero,0x2
 7ac:	0205                	addi	tp,tp,1 # 1 <core::panicking::panic_bounds_check-0x10093>
 7ae:	0000                	unimp
 7b0:	0000                	unimp
 7b2:	0100fa03          	.insn	4, 0x0100fa03
 7b6:	0009                	c.nop	2
 7b8:	0000                	unimp
 7ba:	0101                	addi	sp,sp,0
 7bc:	0500                	addi	s0,sp,640
 7be:	f002                	.insn	2, 0xf002
 7c0:	03000103          	lb	sp,48(zero) # 30 <core::panicking::panic_bounds_check-0x10064>
 7c4:	0111                	addi	sp,sp,4
 7c6:	1305                	addi	t1,t1,-31
 7c8:	030a                	slli	t1,t1,0x2
 7ca:	0908                	addi	a0,sp,144
 7cc:	0004                	.insn	2, 0x0004
 7ce:	0401                	addi	s0,s0,0
 7d0:	03050503          	lb	a0,48(a0)
 7d4:	03c8                	addi	a0,sp,452
 7d6:	0809                	addi	a6,a6,2
 7d8:	0100                	addi	s0,sp,128
 7da:	0c09                	addi	s8,s8,2
 7dc:	0000                	unimp
 7de:	0101                	addi	sp,sp,0
 7e0:	0500                	addi	s0,sp,640
 7e2:	0802                	c.slli64	a6
 7e4:	0104                	addi	s1,sp,128
 7e6:	0300                	addi	s0,sp,384
 7e8:	0111                	addi	sp,sp,4
 7ea:	1305                	addi	t1,t1,-31
 7ec:	030a                	slli	t1,t1,0x2
 7ee:	090c                	addi	a1,sp,144
 7f0:	0008                	.insn	2, 0x0008
 7f2:	0401                	addi	s0,s0,0
 7f4:	03050503          	lb	a0,48(a0)
 7f8:	03c4                	addi	s1,sp,452
 7fa:	0c09                	addi	s8,s8,2
 7fc:	0100                	addi	s0,sp,128
 7fe:	0104                	addi	s1,sp,128
 800:	0a05                	addi	s4,s4,1 # 2030731 <__global_pointer$+0x201e6a5>
 802:	7cb2030b          	.insn	4, 0x7cb2030b
 806:	0009                	c.nop	2
 808:	0100                	addi	s0,sp,128
 80a:	0809                	addi	a6,a6,2
 80c:	0000                	unimp
 80e:	0101                	addi	sp,sp,0
 810:	0500                	addi	s0,sp,640
 812:	2402                	.insn	2, 0x2402
 814:	0104                	addi	s1,sp,128
 816:	0300                	addi	s0,sp,384
 818:	0111                	addi	sp,sp,4
 81a:	1305                	addi	t1,t1,-31
 81c:	030a                	slli	t1,t1,0x2
 81e:	0910                	addi	a2,sp,144
 820:	0004                	.insn	2, 0x0004
 822:	0401                	addi	s0,s0,0
 824:	03050503          	lb	a0,48(a0)
 828:	03c0                	addi	s0,sp,452
 82a:	0809                	addi	a6,a6,2
 82c:	0100                	addi	s0,sp,128
 82e:	1009                	c.nop	-30
 830:	0000                	unimp
 832:	0101                	addi	sp,sp,0
 834:	0500                	addi	s0,sp,640
 836:	4002                	.insn	2, 0x4002
 838:	0104                	addi	s1,sp,128
 83a:	0300                	addi	s0,sp,384
 83c:	0111                	addi	sp,sp,4
 83e:	1305                	addi	t1,t1,-31
 840:	030a                	slli	t1,t1,0x2
 842:	0914                	addi	a3,sp,144
 844:	0004                	.insn	2, 0x0004
 846:	0401                	addi	s0,s0,0
 848:	03050503          	lb	a0,48(a0)
 84c:	03bc                	addi	a5,sp,456
 84e:	0809                	addi	a6,a6,2
 850:	0100                	addi	s0,sp,128
 852:	1009                	c.nop	-30
 854:	0000                	unimp
 856:	0101                	addi	sp,sp,0
 858:	0500                	addi	s0,sp,640
 85a:	5c02                	lw	s8,32(sp)
 85c:	0104                	addi	s1,sp,128
 85e:	0300                	addi	s0,sp,384
 860:	0111                	addi	sp,sp,4
 862:	1305                	addi	t1,t1,-31
 864:	030a                	slli	t1,t1,0x2
 866:	0918                	addi	a4,sp,144
 868:	0004                	.insn	2, 0x0004
 86a:	0401                	addi	s0,s0,0
 86c:	03050503          	lb	a0,48(a0)
 870:	03b8                	addi	a4,sp,456
 872:	0809                	addi	a6,a6,2
 874:	0100                	addi	s0,sp,128
 876:	0c09                	addi	s8,s8,2
 878:	0000                	unimp
 87a:	0101                	addi	sp,sp,0
 87c:	0500                	addi	s0,sp,640
 87e:	7402                	.insn	2, 0x7402
 880:	0104                	addi	s1,sp,128
 882:	0300                	addi	s0,sp,384
 884:	0111                	addi	sp,sp,4
 886:	0304                	addi	s1,sp,384
 888:	0505                	addi	a0,a0,1
 88a:	030a                	slli	t1,t1,0x2
 88c:	03d0                	addi	a2,sp,452
 88e:	0609                	addi	a2,a2,2
 890:	0100                	addi	s0,sp,128
 892:	0104                	addi	s1,sp,128
 894:	1305                	addi	t1,t1,-31
 896:	097ccc03          	lbu	s8,151(s9) # ffff7097 <__global_pointer$+0xfffe500b>
 89a:	0006                	c.slli	zero,0x1
 89c:	0401                	addi	s0,s0,0
 89e:	03050503          	lb	a0,48(a0)
 8a2:	03b4                	addi	a3,sp,456
 8a4:	0809                	addi	a6,a6,2
 8a6:	0100                	addi	s0,sp,128
 8a8:	1009                	c.nop	-30
 8aa:	0000                	unimp
 8ac:	0101                	addi	sp,sp,0
 8ae:	0500                	addi	s0,sp,640
 8b0:	9802                	jalr	a6
 8b2:	0104                	addi	s1,sp,128
 8b4:	0300                	addi	s0,sp,384
 8b6:	0111                	addi	sp,sp,4
 8b8:	1305                	addi	t1,t1,-31
 8ba:	030a                	slli	t1,t1,0x2
 8bc:	0920                	addi	s0,sp,152
 8be:	0004                	.insn	2, 0x0004
 8c0:	0401                	addi	s0,s0,0
 8c2:	03050503          	lb	a0,48(a0)
 8c6:	03b0                	addi	a2,sp,456
 8c8:	0809                	addi	a6,a6,2
 8ca:	0100                	addi	s0,sp,128
 8cc:	0e09                	addi	t3,t3,2
 8ce:	0000                	unimp
 8d0:	0101                	addi	sp,sp,0
 8d2:	0500                	addi	s0,sp,640
 8d4:	b202                	.insn	2, 0xb202
 8d6:	0104                	addi	s1,sp,128
 8d8:	0300                	addi	s0,sp,384
 8da:	0111                	addi	sp,sp,4
 8dc:	0304                	addi	s1,sp,384
 8de:	0505                	addi	a0,a0,1
 8e0:	030a                	slli	t1,t1,0x2
 8e2:	03d0                	addi	a2,sp,452
 8e4:	0609                	addi	a2,a2,2
 8e6:	0100                	addi	s0,sp,128
 8e8:	0104                	addi	s1,sp,128
 8ea:	1305                	addi	t1,t1,-31
 8ec:	097cd403          	lhu	s0,151(s9)
 8f0:	0006                	c.slli	zero,0x1
 8f2:	0401                	addi	s0,s0,0
 8f4:	03050503          	lb	a0,48(a0)
 8f8:	03ac                	addi	a1,sp,456
 8fa:	0809                	addi	a6,a6,2
 8fc:	0100                	addi	s0,sp,128
 8fe:	0e09                	addi	t3,t3,2
 900:	0000                	unimp
 902:	0101                	addi	sp,sp,0
 904:	0500                	addi	s0,sp,640
 906:	d402                	sw	zero,40(sp)
 908:	0104                	addi	s1,sp,128
 90a:	0300                	addi	s0,sp,384
 90c:	0111                	addi	sp,sp,4
 90e:	1105                	addi	sp,sp,-31
 910:	030a                	slli	t1,t1,0x2
 912:	0928                	addi	a0,sp,152
 914:	000a                	c.slli	zero,0x2
 916:	0501                	addi	a0,a0,0
 918:	09010313          	addi	t1,sp,144
 91c:	000c                	.insn	2, 0x000c
 91e:	0401                	addi	s0,s0,0
 920:	03050503          	lb	a0,48(a0)
 924:	0a0903a7          	.insn	4, 0x0a0903a7
 928:	0100                	addi	s0,sp,128
 92a:	0104                	addi	s1,sp,128
 92c:	0a05                	addi	s4,s4,1
 92e:	7cb2030b          	.insn	4, 0x7cb2030b
 932:	0609                	addi	a2,a2,2
 934:	0100                	addi	s0,sp,128
 936:	0a09                	addi	s4,s4,2
 938:	0000                	unimp
 93a:	0101                	addi	sp,sp,0
 93c:	0905                	addi	s2,s2,1
 93e:	000a                	c.slli	zero,0x2
 940:	0205                	addi	tp,tp,1 # 1 <core::panicking::panic_bounds_check-0x10093>
 942:	0000                	unimp
 944:	0000                	unimp
 946:	09013e03          	.insn	4, 0x09013e03
 94a:	0000                	unimp
 94c:	0100                	addi	s0,sp,128
 94e:	0501                	addi	a0,a0,0
 950:	0a09                	addi	s4,s4,2
 952:	0500                	addi	s0,sp,640
 954:	0002                	c.slli64	zero
 956:	0000                	unimp
 958:	0300                	addi	s0,sp,384
 95a:	00c2                	slli	ra,ra,0x10
 95c:	0901                	addi	s2,s2,0
 95e:	0000                	unimp
 960:	0100                	addi	s0,sp,128
 962:	0a01                	addi	s4,s4,0
 964:	0500                	addi	s0,sp,640
 966:	0402                	c.slli64	s0
 968:	0105                	addi	sp,sp,1
 96a:	1100                	addi	s0,sp,160
 96c:	0609                	addi	a2,a2,2
 96e:	0000                	unimp
 970:	0101                	addi	sp,sp,0
 972:	001a                	c.slli	zero,0x6
 974:	0000                	unimp
 976:	0004                	.insn	2, 0x0004
 978:	0014                	.insn	2, 0x0014
 97a:	0000                	unimp
 97c:	0101                	addi	sp,sp,0
 97e:	fb01                	bnez	a4,88e <core::panicking::panic_bounds_check-0xf806>
 980:	0d0e                	slli	s10,s10,0x3
 982:	0100                	addi	s0,sp,128
 984:	0101                	addi	sp,sp,0
 986:	0001                	nop
 988:	0000                	unimp
 98a:	0001                	nop
 98c:	0100                	addi	s0,sp,128
 98e:	0000                	unimp
 990:	00a8                	addi	a0,sp,72
 992:	0000                	unimp
 994:	0004                	.insn	2, 0x0004
 996:	0059                	c.nop	22
 998:	0000                	unimp
 99a:	0101                	addi	sp,sp,0
 99c:	fb01                	bnez	a4,8ac <core::panicking::panic_bounds_check-0xf7e8>
 99e:	0d0e                	slli	s10,s10,0x3
 9a0:	0100                	addi	s0,sp,128
 9a2:	0101                	addi	sp,sp,0
 9a4:	0001                	nop
 9a6:	0000                	unimp
 9a8:	0001                	nop
 9aa:	0100                	addi	s0,sp,128
 9ac:	696c                	.insn	2, 0x696c
 9ae:	7262                	.insn	2, 0x7262
 9b0:	7261                	lui	tp,0xffff8
 9b2:	2f79                	jal	1150 <core::panicking::panic_bounds_check-0xef44>
 9b4:	65726f63          	bltu	tp,s7,1012 <core::panicking::panic_bounds_check-0xf082>
 9b8:	6372732f          	.insn	4, 0x6372732f
 9bc:	2f00                	.insn	2, 0x2f00
 9be:	7061                	c.lui	zero,0xffff8
 9c0:	2f70                	.insn	2, 0x2f70
 9c2:	68746977          	.insn	4, 0x68746977
 9c6:	615f 7373 7265      	.insn	6, 0x72657373615f
 9cc:	6974                	.insn	2, 0x6974
 9ce:	00736e6f          	jal	t3,371d4 <__global_pointer$+0x25148>
 9d2:	7000                	.insn	2, 0x7000
 9d4:	6e61                	lui	t3,0x18
 9d6:	6369                	lui	t1,0x1a
 9d8:	676e696b          	.insn	4, 0x676e696b
 9dc:	722e                	.insn	2, 0x722e
 9de:	00010073          	.insn	4, 0x00010073
 9e2:	7300                	.insn	2, 0x7300
 9e4:	6372                	.insn	2, 0x6372
 9e6:	69616d2f          	.insn	4, 0x69616d2f
 9ea:	2e6e                	.insn	2, 0x2e6e
 9ec:	7372                	.insn	2, 0x7372
 9ee:	0200                	addi	s0,sp,256
 9f0:	0000                	unimp
 9f2:	0000                	unimp
 9f4:	0205                	addi	tp,tp,1 # ffff8001 <__global_pointer$+0xfffe5f75>
 9f6:	0094                	addi	a3,sp,64
 9f8:	0001                	nop
 9fa:	01029203          	lh	tp,16(t0)
 9fe:	0505                	addi	a0,a0,1
 a00:	030a                	slli	t1,t1,0x2
 a02:	0905                	addi	s2,s2,1
 a04:	0008                	.insn	2, 0x0008
 a06:	0901                	addi	s2,s2,0
 a08:	0008                	.insn	2, 0x0008
 a0a:	0100                	addi	s0,sp,128
 a0c:	0401                	addi	s0,s0,0
 a0e:	0502                	c.slli64	a0
 a10:	0a05                	addi	s4,s4,1
 a12:	0500                	addi	s0,sp,640
 a14:	a402                	.insn	2, 0xa402
 a16:	0100                	addi	s0,sp,128
 a18:	0300                	addi	s0,sp,384
 a1a:	0209010b          	.insn	4, 0x0209010b
 a1e:	0000                	unimp
 a20:	0101                	addi	sp,sp,0
 a22:	0500                	addi	s0,sp,640
 a24:	a602                	.insn	2, 0xa602
 a26:	0100                	addi	s0,sp,128
 a28:	0300                	addi	s0,sp,384
 a2a:	050101a7          	.insn	4, 0x050101a7
 a2e:	0a11                	addi	s4,s4,4
 a30:	08090703          	lb	a4,128(s2)
 a34:	0100                	addi	s0,sp,128
 a36:	0809                	addi	a6,a6,2
 a38:	0000                	unimp
 a3a:	0101                	addi	sp,sp,0

Disassembly of section .debug_str:

00000000 <.debug_str>:
       0:	6e616c63          	bltu	sp,t1,6f8 <core::panicking::panic_bounds_check-0xf99c>
       4:	4c4c2067          	.insn	4, 0x4c4c2067
       8:	4d56                	lw	s10,84(sp)
       a:	2820                	.insn	2, 0x2820
       c:	7572                	.insn	2, 0x7572
       e:	20637473          	.insn	4, 0x20637473
      12:	6576                	.insn	2, 0x6576
      14:	7372                	.insn	2, 0x7372
      16:	6f69                	lui	t5,0x1a
      18:	206e                	.insn	2, 0x206e
      1a:	2e31                	jal	336 <core::panicking::panic_bounds_check-0xfd5e>
      1c:	3039                	jal	fffff82a <__global_pointer$+0xfffed79e>
      1e:	302e                	.insn	2, 0x302e
      20:	2820                	.insn	2, 0x2820
      22:	3131                	jal	fffffc2e <__global_pointer$+0xfffedba2>
      24:	3935                	jal	fffffc60 <__global_pointer$+0xfffedbd4>
      26:	3765                	jal	ffffffce <__global_pointer$+0xfffedf42>
      28:	6338                	.insn	2, 0x6338
      2a:	2034                	.insn	2, 0x2034
      2c:	3032                	.insn	2, 0x3032
      2e:	3532                	.insn	2, 0x3532
      30:	302d                	jal	fffff85a <__global_pointer$+0xfffed7ce>
      32:	2d39                	jal	650 <core::panicking::panic_bounds_check-0xfa44>
      34:	3431                	jal	fffffa40 <__global_pointer$+0xfffed9b4>
      36:	2929                	jal	450 <core::panicking::panic_bounds_check-0xfc44>
      38:	7300                	.insn	2, 0x7300
      3a:	6372                	.insn	2, 0x6372
      3c:	69616d2f          	.insn	4, 0x69616d2f
      40:	2e6e                	.insn	2, 0x2e6e
      42:	7372                	.insn	2, 0x7372
      44:	722f402f          	.insn	4, 0x722f402f
      48:	6e69                	lui	t3,0x1a
      4a:	75625f67          	.insn	4, 0x75625f67
      4e:	6666                	.insn	2, 0x6666
      50:	7265                	lui	tp,0xffff9
      52:	735f 6f6d 656b      	.insn	6, 0x656b6f6d735f
      58:	6574                	.insn	2, 0x6574
      5a:	312e7473          	.insn	4, 0x312e7473
      5e:	3838                	.insn	2, 0x3838
      60:	3139                	jal	fffffc6e <__global_pointer$+0xfffedbe2>
      62:	6638                	.insn	2, 0x6638
      64:	6234                	.insn	2, 0x6234
      66:	3036                	.insn	2, 0x3036
      68:	6334                	.insn	2, 0x6334
      6a:	3531                	jal	fffffe76 <__global_pointer$+0xfffeddea>
      6c:	2d39                	jal	68a <core::panicking::panic_bounds_check-0xfa0a>
      6e:	2e756763          	bltu	a0,t2,35c <core::panicking::panic_bounds_check-0xfd38>
      72:	0030                	addi	a2,sp,8
      74:	7070612f          	.insn	4, 0x7070612f
      78:	7469772f          	.insn	4, 0x7469772f
      7c:	5f68                	lw	a0,124(a4)
      7e:	7361                	lui	t1,0xffff8
      80:	74726573          	.insn	4, 0x74726573
      84:	6f69                	lui	t5,0x1a
      86:	736e                	.insn	2, 0x736e
      88:	7200                	.insn	2, 0x7200
      8a:	6e69                	lui	t3,0x1a
      8c:	75625f67          	.insn	4, 0x75625f67
      90:	6666                	.insn	2, 0x6666
      92:	7265                	lui	tp,0xffff9
      94:	735f 6f6d 656b      	.insn	6, 0x656b6f6d735f
      9a:	6574                	.insn	2, 0x6574
      9c:	54007473          	.insn	4, 0x54007473
      a0:	5345                	li	t1,-15
      a2:	5f54                	lw	a3,60(a4)
      a4:	5546                	lw	a0,112(sp)
      a6:	434e                	lw	t1,208(sp)
      a8:	6f630053          	.insn	4, 0x6f630053
      ac:	6c6c                	.insn	2, 0x6c6c
      ae:	6365                	lui	t1,0x19
      b0:	6974                	.insn	2, 0x6974
      b2:	00736e6f          	jal	t3,368b8 <__global_pointer$+0x2482c>
      b6:	6972                	.insn	2, 0x6972
      b8:	676e                	.insn	2, 0x676e
      ba:	625f 6675 6566      	.insn	6, 0x65666675625f
      c0:	0072                	c.slli	zero,0x1c
      c2:	0054                	addi	a3,sp,4
      c4:	6164                	.insn	2, 0x6164
      c6:	6174                	.insn	2, 0x6174
      c8:	705f 7274 6c00      	.insn	6, 0x6c007274705f
      ce:	6e65                	lui	t3,0x19
      d0:	00687467          	.insn	4, 0x00687467
      d4:	7375                	lui	t1,0xffffd
      d6:	7a69                	lui	s4,0xffffa
      d8:	0065                	c.nop	25
      da:	6d26                	.insn	2, 0x6d26
      dc:	7475                	lui	s0,0xffffd
      de:	5b20                	lw	s0,112(a4)
      e0:	3369                	jal	fffffe6a <__global_pointer$+0xfffeddde>
      e2:	5d32                	lw	s10,44(sp)
      e4:	6800                	.insn	2, 0x6800
      e6:	6165                	addi	sp,sp,112
      e8:	0064                	addi	s1,sp,12
      ea:	6174                	.insn	2, 0x6174
      ec:	6c69                	lui	s8,0x1a
      ee:	2600                	.insn	2, 0x2600
      f0:	756d                	lui	a0,0xffffb
      f2:	2074                	.insn	2, 0x2074
      f4:	6972                	.insn	2, 0x6972
      f6:	676e                	.insn	2, 0x676e
      f8:	625f 6675 6566      	.insn	6, 0x65666675625f
      fe:	5f72                	lw	t5,60(sp)
     100:	6b6f6d73          	.insn	4, 0x6b6f6d73
     104:	7465                	lui	s0,0xffff9
     106:	7365                	lui	t1,0xffff9
     108:	3a74                	.insn	2, 0x3a74
     10a:	633a                	.insn	2, 0x633a
     10c:	656c6c6f          	jal	s8,c6762 <__global_pointer$+0xb46d6>
     110:	6f697463          	bgeu	s2,s6,7f8 <core::panicking::panic_bounds_check-0xf89c>
     114:	736e                	.insn	2, 0x736e
     116:	3a3a                	.insn	2, 0x3a3a
     118:	6972                	.insn	2, 0x6972
     11a:	676e                	.insn	2, 0x676e
     11c:	625f 6675 6566      	.insn	6, 0x65666675625f
     122:	3a72                	.insn	2, 0x3a72
     124:	523a                	lw	tp,172(sp)
     126:	6e69                	lui	t3,0x1a
     128:	66754267          	.insn	4, 0x66754267
     12c:	6566                	.insn	2, 0x6566
     12e:	3c72                	.insn	2, 0x3c72
     130:	3369                	jal	fffffeba <__global_pointer$+0xfffede2e>
     132:	3e32                	.insn	2, 0x3e32
     134:	6600                	.insn	2, 0x6600
     136:	286e                	.insn	2, 0x286e
     138:	6d26                	.insn	2, 0x6d26
     13a:	7475                	lui	s0,0xffffd
     13c:	7220                	.insn	2, 0x7220
     13e:	6e69                	lui	t3,0x1a
     140:	75625f67          	.insn	4, 0x75625f67
     144:	6666                	.insn	2, 0x6666
     146:	7265                	lui	tp,0xffff9
     148:	735f 6f6d 656b      	.insn	6, 0x656b6f6d735f
     14e:	6574                	.insn	2, 0x6574
     150:	3a3a7473          	.insn	4, 0x3a3a7473
     154:	6c6c6f63          	bltu	s8,t1,832 <core::panicking::panic_bounds_check-0xf862>
     158:	6365                	lui	t1,0x19
     15a:	6974                	.insn	2, 0x6974
     15c:	3a736e6f          	jal	t3,36d02 <__global_pointer$+0x24c76>
     160:	723a                	.insn	2, 0x723a
     162:	6e69                	lui	t3,0x1a
     164:	75625f67          	.insn	4, 0x75625f67
     168:	6666                	.insn	2, 0x6666
     16a:	7265                	lui	tp,0xffff9
     16c:	3a3a                	.insn	2, 0x3a3a
     16e:	6952                	.insn	2, 0x6952
     170:	676e                	.insn	2, 0x676e
     172:	7542                	.insn	2, 0x7542
     174:	6666                	.insn	2, 0x6666
     176:	7265                	lui	tp,0xffff9
     178:	693c                	.insn	2, 0x693c
     17a:	293e3233          	.insn	4, 0x293e3233
     17e:	5f00                	lw	s0,56(a4)
     180:	415f 5252 5941      	.insn	6, 0x59415252415f
     186:	535f 5a49 5f45      	.insn	6, 0x5f455a49535f
     18c:	5954                	lw	a3,52(a0)
     18e:	4550                	lw	a2,12(a0)
     190:	5f5f 2f00 6f72      	.insn	6, 0x6f722f005f5f
     196:	2e2f746f          	jal	s0,f7478 <__global_pointer$+0xe53ec>
     19a:	67726163          	bltu	tp,s7,7fc <core::panicking::panic_bounds_check-0xf898>
     19e:	69672f6f          	jal	t5,72834 <__global_pointer$+0x607a8>
     1a2:	2f74                	.insn	2, 0x2f74
     1a4:	63656863          	bltu	a0,s6,7d4 <core::panicking::panic_bounds_check-0xf8c0>
     1a8:	74756f6b          	.insn	4, 0x74756f6b
     1ac:	6c662f73          	.insn	4, 0x6c662f73
     1b0:	7875                	lui	a6,0xffffd
     1b2:	382d                	jal	fffff9ec <__global_pointer$+0xfffed960>
     1b4:	6638                	.insn	2, 0x6638
     1b6:	3662                	.insn	2, 0x3662
     1b8:	3830                	.insn	2, 0x3830
     1ba:	3439                	jal	fffffbc8 <__global_pointer$+0xfffedb3c>
     1bc:	6138                	.insn	2, 0x6138
     1be:	63666337          	lui	t1,0x63666
     1c2:	2f64                	.insn	2, 0x2f64
     1c4:	3164                	.insn	2, 0x3164
     1c6:	6362                	.insn	2, 0x6362
     1c8:	2f623363          	.insn	4, 0x2f623363
     1cc:	696c                	.insn	2, 0x696c
     1ce:	2f62                	.insn	2, 0x2f62
     1d0:	6c66                	.insn	2, 0x6c66
     1d2:	7875                	lui	a6,0xffffd
     1d4:	722d                	lui	tp,0xfffeb
     1d6:	72732f73          	.insn	4, 0x72732f73
     1da:	696c2f63          	.insn	4, 0x696c2f63
     1de:	2e62                	.insn	2, 0x2e62
     1e0:	7372                	.insn	2, 0x7372
     1e2:	662f402f          	.insn	4, 0x662f402f
     1e6:	756c                	.insn	2, 0x756c
     1e8:	5f78                	lw	a4,124(a4)
     1ea:	7372                	.insn	2, 0x7372
     1ec:	352e                	.insn	2, 0x352e
     1ee:	3534                	.insn	2, 0x3534
     1f0:	6438                	.insn	2, 0x6438
     1f2:	3231                	jal	fffffafe <__global_pointer$+0xfffeda72>
     1f4:	3761                	jal	17c <core::panicking::panic_bounds_check-0xff18>
     1f6:	65386163          	bltu	a6,s3,838 <core::panicking::panic_bounds_check-0xf85c>
     1fa:	3932                	.insn	2, 0x3932
     1fc:	67632d37          	lui	s10,0x67632
     200:	2e75                	jal	5bc <core::panicking::panic_bounds_check-0xfad8>
     202:	0030                	addi	a2,sp,8
     204:	6f6f722f          	.insn	4, 0x6f6f722f
     208:	2f74                	.insn	2, 0x2f74
     20a:	632e                	.insn	2, 0x632e
     20c:	7261                	lui	tp,0xffff8
     20e:	672f6f67          	.insn	4, 0x672f6f67
     212:	7469                	lui	s0,0xffffa
     214:	6568632f          	.insn	4, 0x6568632f
     218:	756f6b63          	bltu	t5,s6,96e <core::panicking::panic_bounds_check-0xf726>
     21c:	7374                	.insn	2, 0x7374
     21e:	756c662f          	.insn	4, 0x756c662f
     222:	2d78                	.insn	2, 0x2d78
     224:	3838                	.insn	2, 0x3838
     226:	6266                	.insn	2, 0x6266
     228:	3036                	.insn	2, 0x3036
     22a:	3938                	.insn	2, 0x3938
     22c:	3834                	.insn	2, 0x3834
     22e:	3761                	jal	1b6 <core::panicking::panic_bounds_check-0xfede>
     230:	64636663          	bltu	t1,t1,87c <core::panicking::panic_bounds_check-0xf818>
     234:	6231642f          	.insn	4, 0x6231642f
     238:	62336363          	bltu	t1,gp,85e <core::panicking::panic_bounds_check-0xf836>
     23c:	62696c2f          	.insn	4, 0x62696c2f
     240:	756c662f          	.insn	4, 0x756c662f
     244:	2d78                	.insn	2, 0x2d78
     246:	7372                	.insn	2, 0x7372
     248:	6300                	.insn	2, 0x6300
     24a:	0065726f          	jal	tp,57250 <__global_pointer$+0x451c4>
     24e:	00706d63          	bltu	zero,t2,268 <core::panicking::panic_bounds_check-0xfe2c>
     252:	3869                	jal	fffffaec <__global_pointer$+0xfffeda60>
     254:	4c00                	lw	s0,24(s0)
     256:	7365                	lui	t1,0xffff9
     258:	71450073          	.insn	4, 0x71450073
     25c:	6175                	addi	sp,sp,368
     25e:	006c                	addi	a1,sp,12
     260:	61657247          	.insn	4, 0x61657247
     264:	6574                	.insn	2, 0x6574
     266:	0072                	c.slli	zero,0x1c
     268:	6564724f          	.insn	4, 0x6564724f
     26c:	6972                	.insn	2, 0x6972
     26e:	676e                	.insn	2, 0x676e
     270:	7b00                	.insn	2, 0x7b00
     272:	6d69                	lui	s10,0x1a
     274:	6c70                	.insn	2, 0x6c70
     276:	007d3123          	.insn	4, 0x007d3123
     27a:	6c6c6163          	bltu	s8,t1,93c <core::panicking::panic_bounds_check-0xf758>
     27e:	725f 6d65 766f      	.insn	6, 0x766f6d65725f
     284:	5f65                	li	t5,-7
     286:	6966                	.insn	2, 0x6966
     288:	7372                	.insn	2, 0x7372
     28a:	5f74                	lw	a3,124(a4)
     28c:	616d                	addi	sp,sp,240
     28e:	6374                	.insn	2, 0x6374
     290:	6968                	.insn	2, 0x6968
     292:	676e                	.insn	2, 0x676e
     294:	7b00                	.insn	2, 0x7b00
     296:	736f6c63          	bltu	t5,s6,9ce <core::panicking::panic_bounds_check-0xf6c6>
     29a:	7275                	lui	tp,0xffffd
     29c:	2365                	jal	844 <core::panicking::panic_bounds_check-0xf850>
     29e:	7d30                	.insn	2, 0x7d30
     2a0:	5f00                	lw	s0,56(a4)
     2a2:	4e5a                	lw	t3,148(sp)
     2a4:	3132                	.insn	2, 0x3132
     2a6:	6972                	.insn	2, 0x6972
     2a8:	676e                	.insn	2, 0x676e
     2aa:	625f 6675 6566      	.insn	6, 0x65666675625f
     2b0:	5f72                	lw	t5,60(sp)
     2b2:	6b6f6d73          	.insn	4, 0x6b6f6d73
     2b6:	7465                	lui	s0,0xffff9
     2b8:	7365                	lui	t1,0xffff9
     2ba:	3274                	.insn	2, 0x3274
     2bc:	6336                	.insn	2, 0x6336
     2be:	6c61                	lui	s8,0x18
     2c0:	5f6c                	lw	a1,124(a4)
     2c2:	6572                	.insn	2, 0x6572
     2c4:	6f6d                	lui	t5,0x1b
     2c6:	6576                	.insn	2, 0x6576
     2c8:	665f 7269 7473      	.insn	6, 0x74737269665f
     2ce:	6d5f 7461 6863      	.insn	6, 0x686374616d5f
     2d4:	6e69                	lui	t3,0x1a
     2d6:	5f383267          	.insn	4, 0x5f383267
     2da:	7524                	.insn	2, 0x7524
     2dc:	24246237          	lui	tp,0x24246
     2e0:	3775                	jal	28c <core::panicking::panic_bounds_check-0xfe08>
     2e2:	2462                	.insn	2, 0x2462
     2e4:	736f6c63          	bltu	t5,s6,a1c <core::panicking::panic_bounds_check-0xf678>
     2e8:	7275                	lui	tp,0xffffd
     2ea:	2465                	jal	592 <core::panicking::panic_bounds_check-0xfb02>
     2ec:	3775                	jal	298 <core::panicking::panic_bounds_check-0xfdfc>
     2ee:	2464                	.insn	2, 0x2464
     2f0:	7524                	.insn	2, 0x7524
     2f2:	32246437          	lui	s0,0x32246
     2f6:	5f38                	lw	a4,120(a4)
     2f8:	7524                	.insn	2, 0x7524
     2fa:	24246237          	lui	tp,0x24246
     2fe:	3775                	jal	2aa <core::panicking::panic_bounds_check-0xfdea>
     300:	2462                	.insn	2, 0x2462
     302:	736f6c63          	bltu	t5,s6,a3a <core::panicking::panic_bounds_check-0xf65a>
     306:	7275                	lui	tp,0xffffd
     308:	2465                	jal	5b0 <core::panicking::panic_bounds_check-0xfae4>
     30a:	3775                	jal	2b6 <core::panicking::panic_bounds_check-0xfdde>
     30c:	2464                	.insn	2, 0x2464
     30e:	7524                	.insn	2, 0x7524
     310:	31246437          	lui	s0,0x31246
     314:	30306837          	lui	a6,0x30306
     318:	3039                	jal	fffffb26 <__global_pointer$+0xfffeda9a>
     31a:	36323663          	.insn	4, 0x36323663
     31e:	3434                	.insn	2, 0x3434
     320:	6439                	lui	s0,0xe
     322:	6238                	.insn	2, 0x6238
     324:	6262                	.insn	2, 0x6262
     326:	0045                	c.nop	17
     328:	6f62                	.insn	2, 0x6f62
     32a:	26006c6f          	jal	s8,658a <core::panicking::panic_bounds_check-0x9b0a>
     32e:	6972                	.insn	2, 0x6972
     330:	676e                	.insn	2, 0x676e
     332:	625f 6675 6566      	.insn	6, 0x65666675625f
     338:	5f72                	lw	t5,60(sp)
     33a:	6b6f6d73          	.insn	4, 0x6b6f6d73
     33e:	7465                	lui	s0,0xffff9
     340:	7365                	lui	t1,0xffff9
     342:	3a74                	.insn	2, 0x3a74
     344:	633a                	.insn	2, 0x633a
     346:	6c61                	lui	s8,0x18
     348:	5f6c                	lw	a1,124(a4)
     34a:	6572                	.insn	2, 0x6572
     34c:	6f6d                	lui	t5,0x1b
     34e:	6576                	.insn	2, 0x6576
     350:	665f 7269 7473      	.insn	6, 0x74737269665f
     356:	6d5f 7461 6863      	.insn	6, 0x686374616d5f
     35c:	6e69                	lui	t3,0x1a
     35e:	7b3a3a67          	.insn	4, 0x7b3a3a67
     362:	736f6c63          	bltu	t5,s6,a9a <core::panicking::panic_bounds_check-0xf5fa>
     366:	7275                	lui	tp,0xffffd
     368:	2365                	jal	910 <core::panicking::panic_bounds_check-0xf784>
     36a:	7d30                	.insn	2, 0x7d30
     36c:	3a3a                	.insn	2, 0x3a3a
     36e:	6f6c637b          	.insn	4, 0x6f6c637b
     372:	65727573          	.insn	4, 0x65727573
     376:	655f 766e 3023      	.insn	6, 0x3023766e655f
     37c:	007d                	c.nop	31
     37e:	6926                	.insn	2, 0x6926
     380:	63003233          	.insn	4, 0x63003233
     384:	6c61                	lui	s8,0x18
     386:	5f6c                	lw	a1,124(a4)
     388:	6572                	.insn	2, 0x6572
     38a:	6174                	.insn	2, 0x6174
     38c:	6e69                	lui	t3,0x1a
     38e:	5f00                	lw	s0,56(a4)
     390:	4e5a                	lw	t3,148(sp)
     392:	3132                	.insn	2, 0x3132
     394:	6972                	.insn	2, 0x6972
     396:	676e                	.insn	2, 0x676e
     398:	625f 6675 6566      	.insn	6, 0x65666675625f
     39e:	5f72                	lw	t5,60(sp)
     3a0:	6b6f6d73          	.insn	4, 0x6b6f6d73
     3a4:	7465                	lui	s0,0xffff9
     3a6:	7365                	lui	t1,0xffff9
     3a8:	3174                	.insn	2, 0x3174
     3aa:	6331                	lui	t1,0xc
     3ac:	6c61                	lui	s8,0x18
     3ae:	5f6c                	lw	a1,124(a4)
     3b0:	6572                	.insn	2, 0x6572
     3b2:	6174                	.insn	2, 0x6174
     3b4:	6e69                	lui	t3,0x1a
     3b6:	3832                	.insn	2, 0x3832
     3b8:	245f 3775 2462      	.insn	6, 0x24623775245f
     3be:	7524                	.insn	2, 0x7524
     3c0:	63246237          	lui	tp,0x63246
     3c4:	6f6c                	.insn	2, 0x6f6c
     3c6:	65727573          	.insn	4, 0x65727573
     3ca:	7524                	.insn	2, 0x7524
     3cc:	24246437          	lui	s0,0x24246
     3d0:	3775                	jal	37c <core::panicking::panic_bounds_check-0xfd18>
     3d2:	2464                	.insn	2, 0x2464
     3d4:	3832                	.insn	2, 0x3832
     3d6:	245f 3775 2462      	.insn	6, 0x24623775245f
     3dc:	7524                	.insn	2, 0x7524
     3de:	63246237          	lui	tp,0x63246
     3e2:	6f6c                	.insn	2, 0x6f6c
     3e4:	65727573          	.insn	4, 0x65727573
     3e8:	7524                	.insn	2, 0x7524
     3ea:	24246437          	lui	s0,0x24246
     3ee:	3775                	jal	39a <core::panicking::panic_bounds_check-0xfcfa>
     3f0:	2464                	.insn	2, 0x2464
     3f2:	3731                	jal	2fe <core::panicking::panic_bounds_check-0xfd96>
     3f4:	6468                	.insn	2, 0x6468
     3f6:	3635                	jal	ffffff22 <__global_pointer$+0xfffede96>
     3f8:	6562                	.insn	2, 0x6562
     3fa:	3930                	.insn	2, 0x3930
     3fc:	6532                	.insn	2, 0x6532
     3fe:	3438                	.insn	2, 0x3438
     400:	3935                	jal	3c <core::panicking::panic_bounds_check-0x10058>
     402:	45616163          	bltu	sp,s6,844 <core::panicking::panic_bounds_check-0xf850>
     406:	2600                	.insn	2, 0x2600
     408:	756d                	lui	a0,0xffffb
     40a:	2074                	.insn	2, 0x2074
     40c:	6972                	.insn	2, 0x6972
     40e:	676e                	.insn	2, 0x676e
     410:	625f 6675 6566      	.insn	6, 0x65666675625f
     416:	5f72                	lw	t5,60(sp)
     418:	6b6f6d73          	.insn	4, 0x6b6f6d73
     41c:	7465                	lui	s0,0xffff9
     41e:	7365                	lui	t1,0xffff9
     420:	3a74                	.insn	2, 0x3a74
     422:	633a                	.insn	2, 0x633a
     424:	6c61                	lui	s8,0x18
     426:	5f6c                	lw	a1,124(a4)
     428:	6572                	.insn	2, 0x6572
     42a:	6174                	.insn	2, 0x6174
     42c:	6e69                	lui	t3,0x1a
     42e:	3a3a                	.insn	2, 0x3a3a
     430:	6f6c637b          	.insn	4, 0x6f6c637b
     434:	65727573          	.insn	4, 0x65727573
     438:	3a7d3023          	.insn	4, 0x3a7d3023
     43c:	7b3a                	.insn	2, 0x7b3a
     43e:	736f6c63          	bltu	t5,s6,b76 <core::panicking::panic_bounds_check-0xf51e>
     442:	7275                	lui	tp,0xffffd
     444:	5f65                	li	t5,-7
     446:	6e65                	lui	t3,0x19
     448:	2376                	.insn	2, 0x2376
     44a:	7d30                	.insn	2, 0x7d30
     44c:	6800                	.insn	2, 0x6800
     44e:	6e69                	lui	t3,0x1a
     450:	0074                	addi	a3,sp,12
     452:	5a5f 344e 6f63      	.insn	6, 0x6f63344e5a5f
     458:	6572                	.insn	2, 0x6572
     45a:	6834                	.insn	2, 0x6834
     45c:	6e69                	lui	t3,0x1a
     45e:	3974                	.insn	2, 0x3974
     460:	6c62                	.insn	2, 0x6c62
     462:	6361                	lui	t1,0x18
     464:	6f625f6b          	.insn	4, 0x6f625f6b
     468:	3178                	.insn	2, 0x3178
     46a:	62386837          	lui	a6,0x62386
     46e:	3232                	.insn	2, 0x3232
     470:	6661                	lui	a2,0x18
     472:	3162                	.insn	2, 0x3162
     474:	6131                	addi	sp,sp,320
     476:	3935                	jal	b2 <core::panicking::panic_bounds_check-0xffe2>
     478:	3830                	.insn	2, 0x3830
     47a:	3864                	.insn	2, 0x3864
     47c:	0045                	c.nop	17
     47e:	6c62                	.insn	2, 0x6c62
     480:	6361                	lui	t1,0x18
     482:	6f625f6b          	.insn	4, 0x6f625f6b
     486:	3c78                	.insn	2, 0x3c78
     488:	3369                	jal	212 <core::panicking::panic_bounds_check-0xfe82>
     48a:	3e32                	.insn	2, 0x3e32
     48c:	6400                	.insn	2, 0x6400
     48e:	6d75                	lui	s10,0x1d
     490:	796d                	lui	s2,0xffffb
     492:	6e00                	.insn	2, 0x6e00
     494:	6d75                	lui	s10,0x1d
     496:	7b00                	.insn	2, 0x7b00
     498:	6d69                	lui	s10,0x1a
     49a:	6c70                	.insn	2, 0x6c70
     49c:	7d313123          	.insn	4, 0x7d313123
     4a0:	5f00                	lw	s0,56(a4)
     4a2:	4e5a                	lw	t3,148(sp)
     4a4:	6334                	.insn	2, 0x6334
     4a6:	3365726f          	jal	tp,577dc <__global_pointer$+0x45750>
     4aa:	756e                	.insn	2, 0x756e
     4ac:	326d                	jal	fffffe56 <__global_pointer$+0xfffeddca>
     4ae:	4c245f33          	.insn	4, 0x4c245f33
     4b2:	2454                	.insn	2, 0x2454
     4b4:	6d69                	lui	s10,0x1a
     4b6:	6c70                	.insn	2, 0x6c70
     4b8:	7524                	.insn	2, 0x7524
     4ba:	3032                	.insn	2, 0x3032
     4bc:	7524                	.insn	2, 0x7524
     4be:	657a6973          	.insn	4, 0x657a6973
     4c2:	4724                	lw	s1,72(a4)
     4c4:	2454                	.insn	2, 0x2454
     4c6:	3431                	jal	fffffed2 <__global_pointer$+0xfffede46>
     4c8:	75746173          	.insn	4, 0x75746173
     4cc:	6172                	.insn	2, 0x6172
     4ce:	6974                	.insn	2, 0x6974
     4d0:	676e                	.insn	2, 0x676e
     4d2:	735f 6275 3731      	.insn	6, 0x37316275735f
     4d8:	3468                	.insn	2, 0x3468
     4da:	6339                	lui	t1,0xe
     4dc:	6466                	.insn	2, 0x6466
     4de:	3836                	.insn	2, 0x3836
     4e0:	64363833          	.insn	4, 0x64363833
     4e4:	3835                	jal	fffffd20 <__global_pointer$+0xfffedc94>
     4e6:	3932                	.insn	2, 0x3932
     4e8:	4538                	lw	a4,72(a0)
     4ea:	7300                	.insn	2, 0x7300
     4ec:	7461                	lui	s0,0xffff8
     4ee:	7275                	lui	tp,0xffffd
     4f0:	7461                	lui	s0,0xffff8
     4f2:	6e69                	lui	t3,0x1a
     4f4:	75735f67          	.insn	4, 0x75735f67
     4f8:	0062                	c.slli	zero,0x18
     4fa:	666c6573          	.insn	4, 0x666c6573
     4fe:	7200                	.insn	2, 0x7200
     500:	7368                	.insn	2, 0x7368
     502:	5f00                	lw	s0,56(a4)
     504:	4e5a                	lw	t3,148(sp)
     506:	3132                	.insn	2, 0x3132
     508:	6972                	.insn	2, 0x6972
     50a:	676e                	.insn	2, 0x676e
     50c:	625f 6675 6566      	.insn	6, 0x65666675625f
     512:	5f72                	lw	t5,60(sp)
     514:	6b6f6d73          	.insn	4, 0x6b6f6d73
     518:	7465                	lui	s0,0xffff9
     51a:	7365                	lui	t1,0xffff9
     51c:	3174                	.insn	2, 0x3174
     51e:	6331                	lui	t1,0xc
     520:	656c6c6f          	jal	s8,c6b76 <__global_pointer$+0xb4aea>
     524:	6f697463          	bgeu	s2,s6,c0c <core::panicking::panic_bounds_check-0xf488>
     528:	736e                	.insn	2, 0x736e
     52a:	3131                	jal	136 <core::panicking::panic_bounds_check-0xff5e>
     52c:	6972                	.insn	2, 0x6972
     52e:	676e                	.insn	2, 0x676e
     530:	625f 6675 6566      	.insn	6, 0x65666675625f
     536:	3172                	.insn	2, 0x3172
     538:	5239                	li	tp,-18
     53a:	6e69                	lui	t3,0x1a
     53c:	66754267          	.insn	4, 0x66754267
     540:	6566                	.insn	2, 0x6566
     542:	2472                	.insn	2, 0x2472
     544:	544c                	lw	a1,44(s0)
     546:	5424                	lw	s1,104(s0)
     548:	4724                	lw	s1,72(a4)
     54a:	2454                	.insn	2, 0x2454
     54c:	3331                	jal	258 <core::panicking::panic_bounds_check-0xfe3c>
     54e:	7661                	lui	a2,0xffff8
     550:	6961                	lui	s2,0x18
     552:	616c                	.insn	2, 0x616c
     554:	6c62                	.insn	2, 0x6c62
     556:	5f65                	li	t5,-7
     558:	656c                	.insn	2, 0x656c
     55a:	316e                	.insn	2, 0x316e
     55c:	35326837          	lui	a6,0x35326
     560:	6438                	.insn	2, 0x6438
     562:	36363363          	.insn	4, 0x36363363
     566:	62353037          	lui	zero,0x62353
     56a:	32343133          	.insn	4, 0x32343133
     56e:	0045                	c.nop	17
     570:	7661                	lui	a2,0xffff8
     572:	6961                	lui	s2,0x18
     574:	616c                	.insn	2, 0x616c
     576:	6c62                	.insn	2, 0x6c62
     578:	5f65                	li	t5,-7
     57a:	656c                	.insn	2, 0x656c
     57c:	3c6e                	.insn	2, 0x3c6e
     57e:	3369                	jal	308 <core::panicking::panic_bounds_check-0xfd8c>
     580:	3e32                	.insn	2, 0x3e32
     582:	2600                	.insn	2, 0x2600
     584:	6972                	.insn	2, 0x6972
     586:	676e                	.insn	2, 0x676e
     588:	625f 6675 6566      	.insn	6, 0x65666675625f
     58e:	5f72                	lw	t5,60(sp)
     590:	6b6f6d73          	.insn	4, 0x6b6f6d73
     594:	7465                	lui	s0,0xffff9
     596:	7365                	lui	t1,0xffff9
     598:	3a74                	.insn	2, 0x3a74
     59a:	633a                	.insn	2, 0x633a
     59c:	656c6c6f          	jal	s8,c6bf2 <__global_pointer$+0xb4b66>
     5a0:	6f697463          	bgeu	s2,s6,c88 <core::panicking::panic_bounds_check-0xf40c>
     5a4:	736e                	.insn	2, 0x736e
     5a6:	3a3a                	.insn	2, 0x3a3a
     5a8:	6972                	.insn	2, 0x6972
     5aa:	676e                	.insn	2, 0x676e
     5ac:	625f 6675 6566      	.insn	6, 0x65666675625f
     5b2:	3a72                	.insn	2, 0x3a72
     5b4:	523a                	lw	tp,172(sp)
     5b6:	6e69                	lui	t3,0x1a
     5b8:	66754267          	.insn	4, 0x66754267
     5bc:	6566                	.insn	2, 0x6566
     5be:	3c72                	.insn	2, 0x3c72
     5c0:	3369                	jal	34a <core::panicking::panic_bounds_check-0xfd4a>
     5c2:	3e32                	.insn	2, 0x3e32
     5c4:	5f00                	lw	s0,56(a4)
     5c6:	4e5a                	lw	t3,148(sp)
     5c8:	3132                	.insn	2, 0x3132
     5ca:	6972                	.insn	2, 0x6972
     5cc:	676e                	.insn	2, 0x676e
     5ce:	625f 6675 6566      	.insn	6, 0x65666675625f
     5d4:	5f72                	lw	t5,60(sp)
     5d6:	6b6f6d73          	.insn	4, 0x6b6f6d73
     5da:	7465                	lui	s0,0xffff9
     5dc:	7365                	lui	t1,0xffff9
     5de:	3174                	.insn	2, 0x3174
     5e0:	6331                	lui	t1,0xc
     5e2:	656c6c6f          	jal	s8,c6c38 <__global_pointer$+0xb4bac>
     5e6:	6f697463          	bgeu	s2,s6,cce <core::panicking::panic_bounds_check-0xf3c6>
     5ea:	736e                	.insn	2, 0x736e
     5ec:	3131                	jal	1f8 <core::panicking::panic_bounds_check-0xfe9c>
     5ee:	6972                	.insn	2, 0x6972
     5f0:	676e                	.insn	2, 0x676e
     5f2:	625f 6675 6566      	.insn	6, 0x65666675625f
     5f8:	3172                	.insn	2, 0x3172
     5fa:	5239                	li	tp,-18
     5fc:	6e69                	lui	t3,0x1a
     5fe:	66754267          	.insn	4, 0x66754267
     602:	6566                	.insn	2, 0x6566
     604:	2472                	.insn	2, 0x2472
     606:	544c                	lw	a1,44(s0)
     608:	5424                	lw	s1,104(s0)
     60a:	4724                	lw	s1,72(a4)
     60c:	2454                	.insn	2, 0x2454
     60e:	77656e33          	.insn	4, 0x77656e33
     612:	3731                	jal	51e <core::panicking::panic_bounds_check-0xfb76>
     614:	3868                	.insn	2, 0x3868
     616:	3434                	.insn	2, 0x3434
     618:	66383533          	.insn	4, 0x66383533
     61c:	66333633          	.insn	4, 0x66333633
     620:	3536                	.insn	2, 0x3536
     622:	3664                	.insn	2, 0x3664
     624:	4562                	lw	a0,24(sp)
     626:	6e00                	.insn	2, 0x6e00
     628:	7765                	lui	a4,0xffff9
     62a:	693c                	.insn	2, 0x693c
     62c:	003e3233          	sltu	tp,t3,gp
     630:	5a5f 344e 6f63      	.insn	6, 0x6f63344e5a5f
     636:	6572                	.insn	2, 0x6572
     638:	6d756e33          	.insn	4, 0x6d756e33
     63c:	3332                	.insn	2, 0x3332
     63e:	245f 544c 6924      	.insn	6, 0x6924544c245f
     644:	706d                	c.lui	zero,0xffffb
     646:	246c                	.insn	2, 0x246c
     648:	3275                	jal	fffffff4 <__global_pointer$+0xfffedf68>
     64a:	2430                	.insn	2, 0x2430
     64c:	7375                	lui	t1,0xffffd
     64e:	7a69                	lui	s4,0xffffa
     650:	2465                	jal	8f8 <core::panicking::panic_bounds_check-0xf79c>
     652:	31245447          	.insn	4, 0x31245447
     656:	6331                	lui	t1,0xc
     658:	6568                	.insn	2, 0x6568
     65a:	64656b63          	bltu	a0,t1,cb0 <core::panicking::panic_bounds_check-0xf3e4>
     65e:	735f 6275 3731      	.insn	6, 0x37316275735f
     664:	6668                	.insn	2, 0x6668
     666:	36646233          	.insn	4, 0x36646233
     66a:	35633837          	lui	a6,0x35633
     66e:	3932                	.insn	2, 0x3932
     670:	3865                	jal	ffffff28 <__global_pointer$+0xfffede9c>
     672:	3166                	.insn	2, 0x3166
     674:	4534                	lw	a3,72(a0)
     676:	6300                	.insn	2, 0x6300
     678:	6568                	.insn	2, 0x6568
     67a:	64656b63          	bltu	a0,t1,cd0 <core::panicking::panic_bounds_check-0xf3c4>
     67e:	735f 6275 6f00      	.insn	6, 0x6f006275735f
     684:	7470                	.insn	2, 0x7470
     686:	6f69                	lui	t5,0x1a
     688:	006e                	c.slli	zero,0x1b
     68a:	3375                	jal	436 <core::panicking::panic_bounds_check-0xfc5e>
     68c:	0032                	c.slli	zero,0xc
     68e:	6f4e                	.insn	2, 0x6f4e
     690:	656e                	.insn	2, 0x656e
     692:	5300                	lw	s0,32(a4)
     694:	00656d6f          	jal	s10,5669a <__global_pointer$+0x4460e>
     698:	5f5f 0030 704f      	.insn	6, 0x704f00305f5f
     69e:	6974                	.insn	2, 0x6974
     6a0:	753c6e6f          	jal	t3,c75f2 <__global_pointer$+0xb5566>
     6a4:	657a6973          	.insn	4, 0x657a6973
     6a8:	003e                	c.slli	zero,0xf
     6aa:	63696c73          	.insn	4, 0x63696c73
     6ae:	0065                	c.nop	25
     6b0:	6e69                	lui	t3,0x1a
     6b2:	6564                	.insn	2, 0x6564
     6b4:	0078                	addi	a4,sp,12
     6b6:	706d697b          	.insn	4, 0x706d697b
     6ba:	236c                	.insn	2, 0x236c
     6bc:	7d34                	.insn	2, 0x7d34
     6be:	5f00                	lw	s0,56(a4)
     6c0:	4e5a                	lw	t3,148(sp)
     6c2:	3031                	jal	fffffece <__global_pointer$+0xfffede42>
     6c4:	5f36                	lw	t5,108(sp)
     6c6:	4c24                	lw	s1,88(s0)
     6c8:	2454                	.insn	2, 0x2454
     6ca:	65726f63          	bltu	tp,s7,d28 <core::panicking::panic_bounds_check-0xf36c>
     6ce:	2e2e                	.insn	2, 0x2e2e
     6d0:	2e73706f          	j	381b6 <__global_pointer$+0x2612a>
     6d4:	722e                	.insn	2, 0x722e
     6d6:	6e61                	lui	t3,0x18
     6d8:	2e2e6567          	.insn	4, 0x2e2e6567
     6dc:	6152                	.insn	2, 0x6152
     6de:	676e                	.insn	2, 0x676e
     6e0:	2465                	jal	988 <core::panicking::panic_bounds_check-0xf70c>
     6e2:	544c                	lw	a1,44(s0)
     6e4:	7524                	.insn	2, 0x7524
     6e6:	657a6973          	.insn	4, 0x657a6973
     6ea:	4724                	lw	s1,72(a4)
     6ec:	2454                	.insn	2, 0x2454
     6ee:	7524                	.insn	2, 0x7524
     6f0:	3032                	.insn	2, 0x3032
     6f2:	6124                	.insn	2, 0x6124
     6f4:	32752473          	.insn	4, 0x32752473
     6f8:	2430                	.insn	2, 0x2430
     6fa:	65726f63          	bltu	tp,s7,d58 <core::panicking::panic_bounds_check-0xf33c>
     6fe:	2e2e                	.insn	2, 0x2e2e
     700:	63696c73          	.insn	4, 0x63696c73
     704:	2e65                	jal	abc <core::panicking::panic_bounds_check-0xf5d8>
     706:	692e                	.insn	2, 0x692e
     708:	646e                	.insn	2, 0x646e
     70a:	7865                	lui	a6,0xffff9
     70c:	2e2e                	.insn	2, 0x2e2e
     70e:	63696c53          	.insn	4, 0x63696c53
     712:	4965                	li	s2,25
     714:	646e                	.insn	2, 0x646e
     716:	7865                	lui	a6,0xffff9
     718:	4c24                	lw	s1,88(s0)
     71a:	2454                	.insn	2, 0x2454
     71c:	7524                	.insn	2, 0x7524
     71e:	6235                	lui	tp,0xd
     720:	5424                	lw	s1,104(s0)
     722:	7524                	.insn	2, 0x7524
     724:	6435                	lui	s0,0xd
     726:	2424                	.insn	2, 0x2424
     728:	24245447          	.insn	4, 0x24245447
     72c:	35245447          	.insn	4, 0x35245447
     730:	6e69                	lui	t3,0x1a
     732:	6564                	.insn	2, 0x6564
     734:	3178                	.insn	2, 0x3178
     736:	61636837          	lui	a6,0x61636
     73a:	6539                	lui	a0,0xe
     73c:	3864                	.insn	2, 0x3864
     73e:	3230                	.insn	2, 0x3230
     740:	3966                	.insn	2, 0x3966
     742:	32323233          	.insn	4, 0x32323233
     746:	6434                	.insn	2, 0x6434
     748:	0045                	c.nop	17
     74a:	6e69                	lui	t3,0x1a
     74c:	6564                	.insn	2, 0x6564
     74e:	3c78                	.insn	2, 0x3c78
     750:	3369                	jal	4da <core::panicking::panic_bounds_check-0xfbba>
     752:	3e32                	.insn	2, 0x3e32
     754:	2600                	.insn	2, 0x2600
     756:	3233695b          	.insn	4, 0x3233695b
     75a:	005d                	c.nop	23
     75c:	0073706f          	j	37f62 <__global_pointer$+0x25ed6>
     760:	6172                	.insn	2, 0x6172
     762:	676e                	.insn	2, 0x676e
     764:	0065                	c.nop	25
     766:	6449                	lui	s0,0x12
     768:	0078                	addi	a4,sp,12
     76a:	6e65                	lui	t3,0x19
     76c:	0064                	addi	s1,sp,12
     76e:	6152                	.insn	2, 0x6152
     770:	676e                	.insn	2, 0x676e
     772:	3c65                	jal	22a <core::panicking::panic_bounds_check-0xfe6a>
     774:	7375                	lui	t1,0xffffd
     776:	7a69                	lui	s4,0xffffa
     778:	3e65                	jal	330 <core::panicking::panic_bounds_check-0xfd64>
     77a:	6e00                	.insn	2, 0x6e00
     77c:	7765                	lui	a4,0xffff9
     77e:	6c5f 6e65 7b00      	.insn	6, 0x7b006e656c5f
     784:	6d69                	lui	s10,0x1a
     786:	6c70                	.insn	2, 0x6c70
     788:	007d3023          	.insn	4, 0x007d3023
     78c:	0049                	c.nop	18
     78e:	5a5f 344e 6f63      	.insn	6, 0x6f63344e5a5f
     794:	6572                	.insn	2, 0x6572
     796:	7335                	lui	t1,0xfffed
     798:	696c                	.insn	2, 0x696c
     79a:	69356563          	bltu	a0,s3,e24 <core::panicking::panic_bounds_check-0xf270>
     79e:	646e                	.insn	2, 0x646e
     7a0:	7865                	lui	a6,0xffff9
     7a2:	245f3437          	lui	s0,0x245f3
     7a6:	544c                	lw	a1,44(s0)
     7a8:	6924                	.insn	2, 0x6924
     7aa:	706d                	c.lui	zero,0xffffb
     7ac:	246c                	.insn	2, 0x246c
     7ae:	3275                	jal	15a <core::panicking::panic_bounds_check-0xff3a>
     7b0:	2430                	.insn	2, 0x2430
     7b2:	65726f63          	bltu	tp,s7,e10 <core::panicking::panic_bounds_check-0xf284>
     7b6:	2e2e                	.insn	2, 0x2e2e
     7b8:	2e73706f          	j	3829e <__global_pointer$+0x26212>
     7bc:	692e                	.insn	2, 0x692e
     7be:	646e                	.insn	2, 0x646e
     7c0:	7865                	lui	a6,0xffff9
     7c2:	2e2e                	.insn	2, 0x2e2e
     7c4:	6e49                	lui	t3,0x12
     7c6:	6564                	.insn	2, 0x6564
     7c8:	2478                	.insn	2, 0x2478
     7ca:	544c                	lw	a1,44(s0)
     7cc:	4924                	lw	s1,80(a0)
     7ce:	4724                	lw	s1,72(a4)
     7d0:	2454                	.insn	2, 0x2454
     7d2:	7524                	.insn	2, 0x7524
     7d4:	3032                	.insn	2, 0x3032
     7d6:	6624                	.insn	2, 0x6624
     7d8:	7524726f          	jal	tp,47f2a <__global_pointer$+0x35e9e>
     7dc:	3032                	.insn	2, 0x3032
     7de:	2424                	.insn	2, 0x2424
     7e0:	3575                	jal	68c <core::panicking::panic_bounds_check-0xfa08>
     7e2:	2462                	.insn	2, 0x2462
     7e4:	2454                	.insn	2, 0x2454
     7e6:	3575                	jal	692 <core::panicking::panic_bounds_check-0xfa02>
     7e8:	2464                	.insn	2, 0x2464
     7ea:	4724                	lw	s1,72(a4)
     7ec:	2454                	.insn	2, 0x2454
     7ee:	6935                	lui	s2,0xd
     7f0:	646e                	.insn	2, 0x646e
     7f2:	7865                	lui	a6,0xffff9
     7f4:	3731                	jal	700 <core::panicking::panic_bounds_check-0xf994>
     7f6:	3368                	.insn	2, 0x3368
     7f8:	32633233          	.insn	4, 0x32633233
     7fc:	3265                	jal	1a4 <core::panicking::panic_bounds_check-0xfef0>
     7fe:	3166                	.insn	2, 0x3166
     800:	3431                	jal	20c <core::panicking::panic_bounds_check-0xfe88>
     802:	34663763          	.insn	4, 0x34663763
     806:	69004537          	lui	a0,0x69004
     80a:	646e                	.insn	2, 0x646e
     80c:	7865                	lui	a6,0xffff9
     80e:	693c                	.insn	2, 0x693c
     810:	202c3233          	.insn	4, 0x202c3233
     814:	65726f63          	bltu	tp,s7,e72 <core::panicking::panic_bounds_check-0xf222>
     818:	3a3a                	.insn	2, 0x3a3a
     81a:	3a73706f          	j	383c0 <__global_pointer$+0x26334>
     81e:	723a                	.insn	2, 0x723a
     820:	6e61                	lui	t3,0x18
     822:	3a3a6567          	.insn	4, 0x3a3a6567
     826:	6152                	.insn	2, 0x6152
     828:	676e                	.insn	2, 0x676e
     82a:	3c65                	jal	2e2 <core::panicking::panic_bounds_check-0xfdb2>
     82c:	7375                	lui	t1,0xffffd
     82e:	7a69                	lui	s4,0xffffa
     830:	3e65                	jal	3e8 <core::panicking::panic_bounds_check-0xfcac>
     832:	003e                	c.slli	zero,0xf
     834:	5a5f 344e 6f63      	.insn	6, 0x6f63344e5a5f
     83a:	6572                	.insn	2, 0x6572
     83c:	7335                	lui	t1,0xfffed
     83e:	696c                	.insn	2, 0x696c
     840:	69356563          	bltu	a0,s3,eca <core::panicking::panic_bounds_check-0xf1ca>
     844:	646e                	.insn	2, 0x646e
     846:	7865                	lui	a6,0xffff9
     848:	3432                	.insn	2, 0x3432
     84a:	5f746567          	.insn	4, 0x5f746567
     84e:	7366666f          	jal	a2,66f84 <__global_pointer$+0x54ef8>
     852:	7465                	lui	s0,0xffff9
     854:	6c5f 6e65 6e5f      	.insn	6, 0x6e5f6e656c5f
     85a:	6362756f          	jal	a0,27e90 <__global_pointer$+0x15e04>
     85e:	6568                	.insn	2, 0x6568
     860:	37316b63          	bltu	sp,s3,bd6 <core::panicking::panic_bounds_check-0xf4be>
     864:	6568                	.insn	2, 0x6568
     866:	3638                	.insn	2, 0x3638
     868:	3435                	jal	294 <core::panicking::panic_bounds_check-0xfe00>
     86a:	34396463          	bltu	s2,gp,bb2 <core::panicking::panic_bounds_check-0xf4e2>
     86e:	6532                	.insn	2, 0x6532
     870:	34356437          	lui	s0,0x34356
     874:	4532                	lw	a0,12(sp)
     876:	6700                	.insn	2, 0x6700
     878:	7465                	lui	s0,0xffff9
     87a:	6f5f 6666 6573      	.insn	6, 0x657366666f5f
     880:	5f74                	lw	a3,124(a4)
     882:	656c                	.insn	2, 0x656c
     884:	5f6e                	lw	t5,248(sp)
     886:	6f6e                	.insn	2, 0x6f6e
     888:	6275                	lui	tp,0x1d
     88a:	63656863          	bltu	a0,s6,eba <core::panicking::panic_bounds_check-0xf1da>
     88e:	33693c6b          	.insn	4, 0x33693c6b
     892:	3e32                	.insn	2, 0x3e32
     894:	2a00                	.insn	2, 0x2a00
     896:	736e6f63          	bltu	t3,s6,fd4 <core::panicking::panic_bounds_check-0xf0c0>
     89a:	2074                	.insn	2, 0x2074
     89c:	3233695b          	.insn	4, 0x3233695b
     8a0:	005d                	c.nop	23
     8a2:	7366666f          	jal	a2,66fd8 <__global_pointer$+0x54f4c>
     8a6:	7465                	lui	s0,0xffff9
     8a8:	6300                	.insn	2, 0x6300
     8aa:	74736e6f          	jal	t3,377f0 <__global_pointer$+0x25764>
     8ae:	705f 7274 5f00      	.insn	6, 0x5f007274705f
     8b4:	4e5a                	lw	t3,148(sp)
     8b6:	6334                	.insn	2, 0x6334
     8b8:	3365726f          	jal	tp,57bee <__global_pointer$+0x45b62>
     8bc:	7470                	.insn	2, 0x7470
     8be:	3972                	.insn	2, 0x3972
     8c0:	736e6f63          	bltu	t3,s6,ffe <core::panicking::panic_bounds_check-0xf096>
     8c4:	5f74                	lw	a3,124(a4)
     8c6:	7470                	.insn	2, 0x7470
     8c8:	3372                	.insn	2, 0x3372
     8ca:	4c245f33          	.insn	4, 0x4c245f33
     8ce:	2454                	.insn	2, 0x2454
     8d0:	6d69                	lui	s10,0x1a
     8d2:	6c70                	.insn	2, 0x6c70
     8d4:	7524                	.insn	2, 0x7524
     8d6:	3032                	.insn	2, 0x3032
     8d8:	2424                	.insn	2, 0x2424
     8da:	5042                	.insn	2, 0x5042
     8dc:	6324                	.insn	2, 0x6324
     8de:	74736e6f          	jal	t3,37824 <__global_pointer$+0x25798>
     8e2:	7524                	.insn	2, 0x7524
     8e4:	3032                	.insn	2, 0x3032
     8e6:	5424                	lw	s1,104(s0)
     8e8:	4724                	lw	s1,72(a4)
     8ea:	2454                	.insn	2, 0x2454
     8ec:	64646133          	.insn	4, 0x64646133
     8f0:	3731                	jal	7fc <core::panicking::panic_bounds_check-0xf898>
     8f2:	6268                	.insn	2, 0x6268
     8f4:	6265                	lui	tp,0x19
     8f6:	3661                	jal	47e <core::panicking::panic_bounds_check-0xfc16>
     8f8:	6661                	lui	a2,0x18
     8fa:	3230                	.insn	2, 0x3230
     8fc:	6562                	.insn	2, 0x6562
     8fe:	3066                	.insn	2, 0x3066
     900:	3634                	.insn	2, 0x3634
     902:	4536                	lw	a0,76(sp)
     904:	6100                	.insn	2, 0x6100
     906:	6464                	.insn	2, 0x6464
     908:	693c                	.insn	2, 0x693c
     90a:	003e3233          	sltu	tp,t3,gp
     90e:	632a                	.insn	2, 0x632a
     910:	74736e6f          	jal	t3,37856 <__global_pointer$+0x257ca>
     914:	6920                	.insn	2, 0x6920
     916:	63003233          	.insn	4, 0x63003233
     91a:	746e756f          	jal	a0,e8060 <__global_pointer$+0xd5fd4>
     91e:	5f00                	lw	s0,56(a4)
     920:	4e5a                	lw	t3,148(sp)
     922:	6334                	.insn	2, 0x6334
     924:	3565726f          	jal	tp,57c7a <__global_pointer$+0x45bee>
     928:	63696c73          	.insn	4, 0x63696c73
     92c:	3265                	jal	2d4 <core::panicking::panic_bounds_check-0xfdc0>
     92e:	5f39                	li	t5,-18
     930:	4c24                	lw	s1,88(s0)
     932:	2454                	.insn	2, 0x2454
     934:	6d69                	lui	s10,0x1a
     936:	6c70                	.insn	2, 0x6c70
     938:	7524                	.insn	2, 0x7524
     93a:	3032                	.insn	2, 0x3032
     93c:	2424                	.insn	2, 0x2424
     93e:	3575                	jal	7ea <core::panicking::panic_bounds_check-0xf8aa>
     940:	2462                	.insn	2, 0x2462
     942:	2454                	.insn	2, 0x2454
     944:	3575                	jal	7f0 <core::panicking::panic_bounds_check-0xf8a4>
     946:	2464                	.insn	2, 0x2464
     948:	4724                	lw	s1,72(a4)
     94a:	2454                	.insn	2, 0x2454
     94c:	3831                	jal	168 <core::panicking::panic_bounds_check-0xff2c>
     94e:	696c7073          	.insn	4, 0x696c7073
     952:	5f74                	lw	a3,124(a4)
     954:	7461                	lui	s0,0xffff8
     956:	755f 636e 6568      	.insn	6, 0x6568636e755f
     95c:	64656b63          	bltu	a0,t1,fb2 <core::panicking::panic_bounds_check-0xf0e2>
     960:	3731                	jal	86c <core::panicking::panic_bounds_check-0xf828>
     962:	3468                	.insn	2, 0x3468
     964:	3436                	.insn	2, 0x3436
     966:	3839                	jal	184 <core::panicking::panic_bounds_check-0xff10>
     968:	6132                	.insn	2, 0x6132
     96a:	3331                	jal	676 <core::panicking::panic_bounds_check-0xfa1e>
     96c:	3661                	jal	4f4 <core::panicking::panic_bounds_check-0xfba0>
     96e:	6635                	lui	a2,0xd
     970:	45333363          	.insn	4, 0x45333363
     974:	7300                	.insn	2, 0x7300
     976:	6c70                	.insn	2, 0x6c70
     978:	7469                	lui	s0,0xffffa
     97a:	615f 5f74 6e75      	.insn	6, 0x6e755f74615f
     980:	63656863          	bltu	a0,s6,fb0 <core::panicking::panic_bounds_check-0xf0e4>
     984:	3c64656b          	.insn	4, 0x3c64656b
     988:	3369                	jal	712 <core::panicking::panic_bounds_check-0xf982>
     98a:	3e32                	.insn	2, 0x3e32
     98c:	5f00                	lw	s0,56(a4)
     98e:	315f 2800 5b26      	.insn	6, 0x5b262800315f
     994:	3369                	jal	71e <core::panicking::panic_bounds_check-0xf976>
     996:	5d32                	lw	s10,44(sp)
     998:	202c                	.insn	2, 0x202c
     99a:	5b26                	lw	s6,104(sp)
     99c:	3369                	jal	726 <core::panicking::panic_bounds_check-0xf96e>
     99e:	5d32                	lw	s10,44(sp)
     9a0:	0029                	c.nop	10
     9a2:	696d                	lui	s2,0x1b
     9a4:	0064                	addi	s1,sp,12
     9a6:	5a5f 344e 6f63      	.insn	6, 0x6f63344e5a5f
     9ac:	6572                	.insn	2, 0x6572
     9ae:	7335                	lui	t1,0xfffed
     9b0:	696c                	.insn	2, 0x696c
     9b2:	39326563          	bltu	tp,s3,d3c <core::panicking::panic_bounds_check-0xf358>
     9b6:	245f 544c 6924      	.insn	6, 0x6924544c245f
     9bc:	706d                	c.lui	zero,0xffffb
     9be:	246c                	.insn	2, 0x246c
     9c0:	3275                	jal	36c <core::panicking::panic_bounds_check-0xfd28>
     9c2:	2430                	.insn	2, 0x2430
     9c4:	7524                	.insn	2, 0x7524
     9c6:	6235                	lui	tp,0xd
     9c8:	5424                	lw	s1,104(s0)
     9ca:	7524                	.insn	2, 0x7524
     9cc:	6435                	lui	s0,0xd
     9ce:	2424                	.insn	2, 0x2424
     9d0:	31245447          	.insn	4, 0x31245447
     9d4:	7336                	.insn	2, 0x7336
     9d6:	6c70                	.insn	2, 0x6c70
     9d8:	7469                	lui	s0,0xffffa
     9da:	615f 5f74 6863      	.insn	6, 0x68635f74615f
     9e0:	6365                	lui	t1,0x19
     9e2:	3164656b          	.insn	4, 0x3164656b
     9e6:	62666837          	lui	a6,0x62666
     9ea:	3236                	.insn	2, 0x3236
     9ec:	34653033          	.insn	4, 0x34653033
     9f0:	3038                	.insn	2, 0x3038
     9f2:	3030                	.insn	2, 0x3030
     9f4:	32366163          	bltu	a2,gp,d16 <core::panicking::panic_bounds_check-0xf37e>
     9f8:	0045                	c.nop	17
     9fa:	696c7073          	.insn	4, 0x696c7073
     9fe:	5f74                	lw	a3,124(a4)
     a00:	7461                	lui	s0,0xffff8
     a02:	635f 6568 6b63      	.insn	6, 0x6b636568635f
     a08:	6465                	lui	s0,0x19
     a0a:	693c                	.insn	2, 0x693c
     a0c:	003e3233          	sltu	tp,t3,gp
     a10:	6974704f          	.insn	4, 0x6974704f
     a14:	283c6e6f          	jal	t3,c7496 <__global_pointer$+0xb540a>
     a18:	5b26                	lw	s6,104(sp)
     a1a:	3369                	jal	7a4 <core::panicking::panic_bounds_check-0xf8f0>
     a1c:	5d32                	lw	s10,44(sp)
     a1e:	202c                	.insn	2, 0x202c
     a20:	5b26                	lw	s6,104(sp)
     a22:	3369                	jal	7ac <core::panicking::panic_bounds_check-0xf8e8>
     a24:	5d32                	lw	s10,44(sp)
     a26:	3e29                	jal	540 <core::panicking::panic_bounds_check-0xfb54>
     a28:	5f00                	lw	s0,56(a4)
     a2a:	4e5a                	lw	t3,148(sp)
     a2c:	6334                	.insn	2, 0x6334
     a2e:	3565726f          	jal	tp,57d84 <__global_pointer$+0x45cf8>
     a32:	63696c73          	.insn	4, 0x63696c73
     a36:	3265                	jal	3de <core::panicking::panic_bounds_check-0xfcb6>
     a38:	5f39                	li	t5,-18
     a3a:	4c24                	lw	s1,88(s0)
     a3c:	2454                	.insn	2, 0x2454
     a3e:	6d69                	lui	s10,0x1a
     a40:	6c70                	.insn	2, 0x6c70
     a42:	7524                	.insn	2, 0x7524
     a44:	3032                	.insn	2, 0x3032
     a46:	2424                	.insn	2, 0x2424
     a48:	3575                	jal	8f4 <core::panicking::panic_bounds_check-0xf7a0>
     a4a:	2462                	.insn	2, 0x2462
     a4c:	2454                	.insn	2, 0x2454
     a4e:	3575                	jal	8fa <core::panicking::panic_bounds_check-0xf79a>
     a50:	2464                	.insn	2, 0x2464
     a52:	4724                	lw	s1,72(a4)
     a54:	2454                	.insn	2, 0x2454
     a56:	7338                	.insn	2, 0x7338
     a58:	6c70                	.insn	2, 0x6c70
     a5a:	7469                	lui	s0,0xffffa
     a5c:	615f 3174 6837      	.insn	6, 0x68373174615f
     a62:	6565                	lui	a0,0x19
     a64:	6632                	.insn	2, 0x6632
     a66:	3830                	.insn	2, 0x3830
     a68:	3261                	jal	3f0 <core::panicking::panic_bounds_check-0xfca4>
     a6a:	39666263          	bltu	a2,s6,dee <core::panicking::panic_bounds_check-0xf2a6>
     a6e:	6634                	.insn	2, 0x6634
     a70:	6665                	lui	a2,0x19
     a72:	0045                	c.nop	17
     a74:	696c7073          	.insn	4, 0x696c7073
     a78:	5f74                	lw	a3,124(a4)
     a7a:	7461                	lui	s0,0xffff8
     a7c:	693c                	.insn	2, 0x693c
     a7e:	003e3233          	sltu	tp,t3,gp
     a82:	6170                	.insn	2, 0x6170
     a84:	7269                	lui	tp,0xffffa
     a86:	5f00                	lw	s0,56(a4)
     a88:	4e5a                	lw	t3,148(sp)
     a8a:	3132                	.insn	2, 0x3132
     a8c:	6972                	.insn	2, 0x6972
     a8e:	676e                	.insn	2, 0x676e
     a90:	625f 6675 6566      	.insn	6, 0x65666675625f
     a96:	5f72                	lw	t5,60(sp)
     a98:	6b6f6d73          	.insn	4, 0x6b6f6d73
     a9c:	7465                	lui	s0,0xffff9
     a9e:	7365                	lui	t1,0xffff9
     aa0:	3174                	.insn	2, 0x3174
     aa2:	6331                	lui	t1,0xc
     aa4:	656c6c6f          	jal	s8,c70fa <__global_pointer$+0xb506e>
     aa8:	6f697463          	bgeu	s2,s6,1190 <core::panicking::panic_bounds_check-0xef04>
     aac:	736e                	.insn	2, 0x736e
     aae:	3131                	jal	6ba <core::panicking::panic_bounds_check-0xf9da>
     ab0:	6972                	.insn	2, 0x6972
     ab2:	676e                	.insn	2, 0x676e
     ab4:	625f 6675 6566      	.insn	6, 0x65666675625f
     aba:	3172                	.insn	2, 0x3172
     abc:	5239                	li	tp,-18
     abe:	6e69                	lui	t3,0x1a
     ac0:	66754267          	.insn	4, 0x66754267
     ac4:	6566                	.insn	2, 0x6566
     ac6:	2472                	.insn	2, 0x2472
     ac8:	544c                	lw	a1,44(s0)
     aca:	5424                	lw	s1,104(s0)
     acc:	4724                	lw	s1,72(a4)
     ace:	2454                	.insn	2, 0x2454
     ad0:	6139                	addi	sp,sp,448
     ad2:	6c735f73          	.insn	4, 0x6c735f73
     ad6:	6369                	lui	t1,0x1a
     ad8:	7365                	lui	t1,0xffff9
     ada:	3731                	jal	9e6 <core::panicking::panic_bounds_check-0xf6ae>
     adc:	3268                	.insn	2, 0x3268
     ade:	3062                	.insn	2, 0x3062
     ae0:	6335                	lui	t1,0xd
     ae2:	3438                	.insn	2, 0x3438
     ae4:	3630                	.insn	2, 0x3630
     ae6:	3762                	.insn	2, 0x3762
     ae8:	3966                	.insn	2, 0x3966
     aea:	6236                	.insn	2, 0x6236
     aec:	61004537          	lui	a0,0x61004
     af0:	6c735f73          	.insn	4, 0x6c735f73
     af4:	6369                	lui	t1,0x1a
     af6:	7365                	lui	t1,0xffff9
     af8:	693c                	.insn	2, 0x693c
     afa:	003e3233          	sltu	tp,t3,gp
     afe:	6974704f          	.insn	4, 0x6974704f
     b02:	263c6e6f          	jal	t3,c7564 <__global_pointer$+0xb54d8>
     b06:	3233695b          	.insn	4, 0x3233695b
     b0a:	3e5d                	jal	6c0 <core::panicking::panic_bounds_check-0xf9d4>
     b0c:	2800                	.insn	2, 0x2800
     b0e:	65726f63          	bltu	tp,s7,116c <core::panicking::panic_bounds_check-0xef28>
     b12:	3a3a                	.insn	2, 0x3a3a
     b14:	6974706f          	j	489aa <__global_pointer$+0x3691e>
     b18:	3a3a6e6f          	jal	t3,a76ba <__global_pointer$+0x9562e>
     b1c:	6974704f          	.insn	4, 0x6974704f
     b20:	263c6e6f          	jal	t3,c7582 <__global_pointer$+0xb54f6>
     b24:	3233695b          	.insn	4, 0x3233695b
     b28:	3e5d                	jal	6de <core::panicking::panic_bounds_check-0xf9b6>
     b2a:	202c                	.insn	2, 0x202c
     b2c:	65726f63          	bltu	tp,s7,118a <core::panicking::panic_bounds_check-0xef0a>
     b30:	3a3a                	.insn	2, 0x3a3a
     b32:	6974706f          	j	489c8 <__global_pointer$+0x3693c>
     b36:	3a3a6e6f          	jal	t3,a76d8 <__global_pointer$+0x9564c>
     b3a:	6974704f          	.insn	4, 0x6974704f
     b3e:	263c6e6f          	jal	t3,c75a0 <__global_pointer$+0xb5514>
     b42:	3233695b          	.insn	4, 0x3233695b
     b46:	3e5d                	jal	6fc <core::panicking::panic_bounds_check-0xf998>
     b48:	0029                	c.nop	10
     b4a:	5a5f 324e 7231      	.insn	6, 0x7231324e5a5f
     b50:	6e69                	lui	t3,0x1a
     b52:	75625f67          	.insn	4, 0x75625f67
     b56:	6666                	.insn	2, 0x6666
     b58:	7265                	lui	tp,0xffff9
     b5a:	735f 6f6d 656b      	.insn	6, 0x656b6f6d735f
     b60:	6574                	.insn	2, 0x6574
     b62:	31317473          	.insn	4, 0x31317473
     b66:	6c6c6163          	bltu	s8,t1,1228 <core::panicking::panic_bounds_check-0xee6c>
     b6a:	725f 7465 6961      	.insn	6, 0x69617465725f
     b70:	326e                	.insn	2, 0x326e
     b72:	5f38                	lw	a4,120(a4)
     b74:	7524                	.insn	2, 0x7524
     b76:	24246237          	lui	tp,0x24246
     b7a:	3775                	jal	b26 <core::panicking::panic_bounds_check-0xf56e>
     b7c:	2462                	.insn	2, 0x2462
     b7e:	736f6c63          	bltu	t5,s6,12b6 <core::panicking::panic_bounds_check-0xedde>
     b82:	7275                	lui	tp,0xffffd
     b84:	2465                	jal	e2c <core::panicking::panic_bounds_check-0xf268>
     b86:	3775                	jal	b32 <core::panicking::panic_bounds_check-0xf562>
     b88:	2464                	.insn	2, 0x2464
     b8a:	7524                	.insn	2, 0x7524
     b8c:	31246437          	lui	s0,0x31246
     b90:	65396837          	lui	a6,0x65396
     b94:	6434                	.insn	2, 0x6434
     b96:	3238                	.insn	2, 0x3238
     b98:	62653363          	.insn	4, 0x62653363
     b9c:	3766                	.insn	2, 0x3766
     b9e:	6138                	.insn	2, 0x6138
     ba0:	3831                	jal	3bc <core::panicking::panic_bounds_check-0xfcd8>
     ba2:	0045                	c.nop	17
     ba4:	7226                	.insn	2, 0x7226
     ba6:	6e69                	lui	t3,0x1a
     ba8:	75625f67          	.insn	4, 0x75625f67
     bac:	6666                	.insn	2, 0x6666
     bae:	7265                	lui	tp,0xffff9
     bb0:	735f 6f6d 656b      	.insn	6, 0x656b6f6d735f
     bb6:	6574                	.insn	2, 0x6574
     bb8:	3a3a7473          	.insn	4, 0x3a3a7473
     bbc:	6c6c6163          	bltu	s8,t1,127e <core::panicking::panic_bounds_check-0xee16>
     bc0:	725f 7465 6961      	.insn	6, 0x69617465725f
     bc6:	3a6e                	.insn	2, 0x3a6e
     bc8:	7b3a                	.insn	2, 0x7b3a
     bca:	736f6c63          	bltu	t5,s6,1302 <core::panicking::panic_bounds_check-0xed92>
     bce:	7275                	lui	tp,0xffffd
     bd0:	5f65                	li	t5,-7
     bd2:	6e65                	lui	t3,0x19
     bd4:	2376                	.insn	2, 0x2376
     bd6:	7d30                	.insn	2, 0x7d30
     bd8:	6200                	.insn	2, 0x6200
     bda:	6675                	lui	a2,0x1d
     bdc:	6300                	.insn	2, 0x6300
     bde:	6c61                	lui	s8,0x18
     be0:	5f6c                	lw	a1,124(a4)
     be2:	6d65                	lui	s10,0x19
     be4:	7470                	.insn	2, 0x7470
     be6:	0079                	c.nop	30
     be8:	5a5f 324e 7231      	.insn	6, 0x7231324e5a5f
     bee:	6e69                	lui	t3,0x1a
     bf0:	75625f67          	.insn	4, 0x75625f67
     bf4:	6666                	.insn	2, 0x6666
     bf6:	7265                	lui	tp,0xffff9
     bf8:	735f 6f6d 656b      	.insn	6, 0x656b6f6d735f
     bfe:	6574                	.insn	2, 0x6574
     c00:	30317473          	.insn	4, 0x30317473
     c04:	6c6c6163          	bltu	s8,t1,12c6 <core::panicking::panic_bounds_check-0xedce>
     c08:	655f 706d 7974      	.insn	6, 0x7974706d655f
     c0e:	3832                	.insn	2, 0x3832
     c10:	245f 3775 2462      	.insn	6, 0x24623775245f
     c16:	7524                	.insn	2, 0x7524
     c18:	63246237          	lui	tp,0x63246
     c1c:	6f6c                	.insn	2, 0x6f6c
     c1e:	65727573          	.insn	4, 0x65727573
     c22:	7524                	.insn	2, 0x7524
     c24:	24246437          	lui	s0,0x24246
     c28:	3775                	jal	bd4 <core::panicking::panic_bounds_check-0xf4c0>
     c2a:	2464                	.insn	2, 0x2464
     c2c:	3731                	jal	b38 <core::panicking::panic_bounds_check-0xf55c>
     c2e:	3868                	.insn	2, 0x3868
     c30:	3334                	.insn	2, 0x3334
     c32:	62383737          	lui	a4,0x62383
     c36:	3264                	.insn	2, 0x3264
     c38:	3961                	jal	8d0 <core::panicking::panic_bounds_check-0xf7c4>
     c3a:	6239                	lui	tp,0xe
     c3c:	45363433          	.insn	4, 0x45363433
     c40:	2600                	.insn	2, 0x2600
     c42:	6972                	.insn	2, 0x6972
     c44:	676e                	.insn	2, 0x676e
     c46:	625f 6675 6566      	.insn	6, 0x65666675625f
     c4c:	5f72                	lw	t5,60(sp)
     c4e:	6b6f6d73          	.insn	4, 0x6b6f6d73
     c52:	7465                	lui	s0,0xffff9
     c54:	7365                	lui	t1,0xffff9
     c56:	3a74                	.insn	2, 0x3a74
     c58:	633a                	.insn	2, 0x633a
     c5a:	6c61                	lui	s8,0x18
     c5c:	5f6c                	lw	a1,124(a4)
     c5e:	6d65                	lui	s10,0x19
     c60:	7470                	.insn	2, 0x7470
     c62:	3a79                	jal	600 <core::panicking::panic_bounds_check-0xfa94>
     c64:	7b3a                	.insn	2, 0x7b3a
     c66:	736f6c63          	bltu	t5,s6,139e <core::panicking::panic_bounds_check-0xecf6>
     c6a:	7275                	lui	tp,0xffffd
     c6c:	5f65                	li	t5,-7
     c6e:	6e65                	lui	t3,0x19
     c70:	2376                	.insn	2, 0x2376
     c72:	7d30                	.insn	2, 0x7d30
     c74:	6300                	.insn	2, 0x6300
     c76:	6c61                	lui	s8,0x18
     c78:	5f6c                	lw	a1,124(a4)
     c7a:	7661                	lui	a2,0xffff8
     c7c:	6961                	lui	s2,0x18
     c7e:	616c                	.insn	2, 0x616c
     c80:	6c62                	.insn	2, 0x6c62
     c82:	5f65                	li	t5,-7
     c84:	656c                	.insn	2, 0x656c
     c86:	006e                	c.slli	zero,0x1b
     c88:	5a5f 324e 7231      	.insn	6, 0x7231324e5a5f
     c8e:	6e69                	lui	t3,0x1a
     c90:	75625f67          	.insn	4, 0x75625f67
     c94:	6666                	.insn	2, 0x6666
     c96:	7265                	lui	tp,0xffff9
     c98:	735f 6f6d 656b      	.insn	6, 0x656b6f6d735f
     c9e:	6574                	.insn	2, 0x6574
     ca0:	38317473          	.insn	4, 0x38317473
     ca4:	6c6c6163          	bltu	s8,t1,1366 <core::panicking::panic_bounds_check-0xed2e>
     ca8:	615f 6176 6c69      	.insn	6, 0x6c696176615f
     cae:	6261                	lui	tp,0x18
     cb0:	656c                	.insn	2, 0x656c
     cb2:	6c5f 6e65 3832      	.insn	6, 0x38326e656c5f
     cb8:	245f 3775 2462      	.insn	6, 0x24623775245f
     cbe:	7524                	.insn	2, 0x7524
     cc0:	63246237          	lui	tp,0x63246
     cc4:	6f6c                	.insn	2, 0x6f6c
     cc6:	65727573          	.insn	4, 0x65727573
     cca:	7524                	.insn	2, 0x7524
     ccc:	24246437          	lui	s0,0x24246
     cd0:	3775                	jal	c7c <core::panicking::panic_bounds_check-0xf418>
     cd2:	2464                	.insn	2, 0x2464
     cd4:	3731                	jal	be0 <core::panicking::panic_bounds_check-0xf4b4>
     cd6:	3368                	.insn	2, 0x3368
     cd8:	6538                	.insn	2, 0x6538
     cda:	3965                	jal	992 <core::panicking::panic_bounds_check-0xf702>
     cdc:	6164                	.insn	2, 0x6164
     cde:	3131                	jal	8ea <core::panicking::panic_bounds_check-0xf7aa>
     ce0:	3762                	.insn	2, 0x3762
     ce2:	3761                	jal	c6a <core::panicking::panic_bounds_check-0xf42a>
     ce4:	3932                	.insn	2, 0x3932
     ce6:	26004537          	lui	a0,0x26004
     cea:	6972                	.insn	2, 0x6972
     cec:	676e                	.insn	2, 0x676e
     cee:	625f 6675 6566      	.insn	6, 0x65666675625f
     cf4:	5f72                	lw	t5,60(sp)
     cf6:	6b6f6d73          	.insn	4, 0x6b6f6d73
     cfa:	7465                	lui	s0,0xffff9
     cfc:	7365                	lui	t1,0xffff9
     cfe:	3a74                	.insn	2, 0x3a74
     d00:	633a                	.insn	2, 0x633a
     d02:	6c61                	lui	s8,0x18
     d04:	5f6c                	lw	a1,124(a4)
     d06:	7661                	lui	a2,0xffff8
     d08:	6961                	lui	s2,0x18
     d0a:	616c                	.insn	2, 0x616c
     d0c:	6c62                	.insn	2, 0x6c62
     d0e:	5f65                	li	t5,-7
     d10:	656c                	.insn	2, 0x656c
     d12:	3a6e                	.insn	2, 0x3a6e
     d14:	7b3a                	.insn	2, 0x7b3a
     d16:	736f6c63          	bltu	t5,s6,144e <core::panicking::panic_bounds_check-0xec46>
     d1a:	7275                	lui	tp,0xffffd
     d1c:	5f65                	li	t5,-7
     d1e:	6e65                	lui	t3,0x19
     d20:	2376                	.insn	2, 0x2376
     d22:	7d30                	.insn	2, 0x7d30
     d24:	5f00                	lw	s0,56(a4)
     d26:	4e5a                	lw	t3,148(sp)
     d28:	6334                	.insn	2, 0x6334
     d2a:	3465726f          	jal	tp,58070 <__global_pointer$+0x45fe4>
     d2e:	6968                	.insn	2, 0x6968
     d30:	746e                	.insn	2, 0x746e
     d32:	6239                	lui	tp,0xe
     d34:	616c                	.insn	2, 0x616c
     d36:	625f6b63          	bltu	t5,t0,136c <core::panicking::panic_bounds_check-0xed28>
     d3a:	3731786f          	jal	a6,188ac <__global_pointer$+0x6820>
     d3e:	3368                	.insn	2, 0x3368
     d40:	3032                	.insn	2, 0x3032
     d42:	33363733          	.insn	4, 0x33363733
     d46:	6231                	lui	tp,0xc
     d48:	63343733          	.insn	4, 0x63343733
     d4c:	45393433          	.insn	4, 0x45393433
     d50:	6200                	.insn	2, 0x6200
     d52:	616c                	.insn	2, 0x616c
     d54:	625f6b63          	bltu	t5,t0,138a <core::panicking::panic_bounds_check-0xed0a>
     d58:	753c786f          	jal	a6,c8caa <__global_pointer$+0xb6c1e>
     d5c:	657a6973          	.insn	4, 0x657a6973
     d60:	003e                	c.slli	zero,0xf
     d62:	6c6c6163          	bltu	s8,t1,1424 <core::panicking::panic_bounds_check-0xec70>
     d66:	615f 5f73 6c73      	.insn	6, 0x6c735f73615f
     d6c:	6369                	lui	t1,0x1a
     d6e:	7365                	lui	t1,0xffff9
     d70:	5f00                	lw	s0,56(a4)
     d72:	4e5a                	lw	t3,148(sp)
     d74:	3132                	.insn	2, 0x3132
     d76:	6972                	.insn	2, 0x6972
     d78:	676e                	.insn	2, 0x676e
     d7a:	625f 6675 6566      	.insn	6, 0x65666675625f
     d80:	5f72                	lw	t5,60(sp)
     d82:	6b6f6d73          	.insn	4, 0x6b6f6d73
     d86:	7465                	lui	s0,0xffff9
     d88:	7365                	lui	t1,0xffff9
     d8a:	3174                	.insn	2, 0x3174
     d8c:	6334                	.insn	2, 0x6334
     d8e:	6c61                	lui	s8,0x18
     d90:	5f6c                	lw	a1,124(a4)
     d92:	7361                	lui	t1,0xffff8
     d94:	735f 696c 6563      	.insn	6, 0x6563696c735f
     d9a:	5f383273          	.insn	4, 0x5f383273
     d9e:	7524                	.insn	2, 0x7524
     da0:	24246237          	lui	tp,0x24246
     da4:	3775                	jal	d50 <core::panicking::panic_bounds_check-0xf344>
     da6:	2462                	.insn	2, 0x2462
     da8:	736f6c63          	bltu	t5,s6,14e0 <core::panicking::panic_bounds_check-0xebb4>
     dac:	7275                	lui	tp,0xffffd
     dae:	2465                	jal	1056 <core::panicking::panic_bounds_check-0xf03e>
     db0:	3775                	jal	d5c <core::panicking::panic_bounds_check-0xf338>
     db2:	2464                	.insn	2, 0x2464
     db4:	7524                	.insn	2, 0x7524
     db6:	31246437          	lui	s0,0x31246
     dba:	33326837          	lui	a6,0x33326
     dbe:	3938                	.insn	2, 0x3938
     dc0:	30316333          	.insn	4, 0x30316333
     dc4:	3364                	.insn	2, 0x3364
     dc6:	3634                	.insn	2, 0x3634
     dc8:	38663737          	lui	a4,0x38663
     dcc:	0045                	c.nop	17
     dce:	7226                	.insn	2, 0x7226
     dd0:	6e69                	lui	t3,0x1a
     dd2:	75625f67          	.insn	4, 0x75625f67
     dd6:	6666                	.insn	2, 0x6666
     dd8:	7265                	lui	tp,0xffff9
     dda:	735f 6f6d 656b      	.insn	6, 0x656b6f6d735f
     de0:	6574                	.insn	2, 0x6574
     de2:	3a3a7473          	.insn	4, 0x3a3a7473
     de6:	6c6c6163          	bltu	s8,t1,14a8 <core::panicking::panic_bounds_check-0xebec>
     dea:	615f 5f73 6c73      	.insn	6, 0x6c735f73615f
     df0:	6369                	lui	t1,0x1a
     df2:	7365                	lui	t1,0xffff9
     df4:	3a3a                	.insn	2, 0x3a3a
     df6:	6f6c637b          	.insn	4, 0x6f6c637b
     dfa:	65727573          	.insn	4, 0x65727573
     dfe:	655f 766e 3023      	.insn	6, 0x3023766e655f
     e04:	007d                	c.nop	31
     e06:	5a5f 344e 6f63      	.insn	6, 0x6f63344e5a5f
     e0c:	6572                	.insn	2, 0x6572
     e0e:	6834                	.insn	2, 0x6834
     e10:	6e69                	lui	t3,0x1a
     e12:	3974                	.insn	2, 0x3974
     e14:	6c62                	.insn	2, 0x6c62
     e16:	6361                	lui	t1,0x18
     e18:	6f625f6b          	.insn	4, 0x6f625f6b
     e1c:	3178                	.insn	2, 0x3178
     e1e:	32306837          	lui	a6,0x32306
     e22:	3165                	jal	aca <core::panicking::panic_bounds_check-0xf5ca>
     e24:	3431                	jal	830 <core::panicking::panic_bounds_check-0xf864>
     e26:	3964                	.insn	2, 0x3964
     e28:	34386163          	bltu	a6,gp,116a <core::panicking::panic_bounds_check-0xef2a>
     e2c:	6334                	.insn	2, 0x6334
     e2e:	3735                	jal	d5a <core::panicking::panic_bounds_check-0xf33a>
     e30:	0045                	c.nop	17
     e32:	6c62                	.insn	2, 0x6c62
     e34:	6361                	lui	t1,0x18
     e36:	6f625f6b          	.insn	4, 0x6f625f6b
     e3a:	3c78                	.insn	2, 0x3c78
     e3c:	6328                	.insn	2, 0x6328
     e3e:	3a65726f          	jal	tp,581e4 <__global_pointer$+0x46158>
     e42:	6f3a                	.insn	2, 0x6f3a
     e44:	7470                	.insn	2, 0x7470
     e46:	6f69                	lui	t5,0x1a
     e48:	3a6e                	.insn	2, 0x3a6e
     e4a:	4f3a                	lw	t5,140(sp)
     e4c:	7470                	.insn	2, 0x7470
     e4e:	6f69                	lui	t5,0x1a
     e50:	3c6e                	.insn	2, 0x3c6e
     e52:	5b26                	lw	s6,104(sp)
     e54:	3369                	jal	bde <core::panicking::panic_bounds_check-0xf4b6>
     e56:	5d32                	lw	s10,44(sp)
     e58:	2c3e                	.insn	2, 0x2c3e
     e5a:	6320                	.insn	2, 0x6320
     e5c:	3a65726f          	jal	tp,58202 <__global_pointer$+0x46176>
     e60:	6f3a                	.insn	2, 0x6f3a
     e62:	7470                	.insn	2, 0x7470
     e64:	6f69                	lui	t5,0x1a
     e66:	3a6e                	.insn	2, 0x3a6e
     e68:	4f3a                	lw	t5,140(sp)
     e6a:	7470                	.insn	2, 0x7470
     e6c:	6f69                	lui	t5,0x1a
     e6e:	3c6e                	.insn	2, 0x3c6e
     e70:	5b26                	lw	s6,104(sp)
     e72:	3369                	jal	bfc <core::panicking::panic_bounds_check-0xf498>
     e74:	5d32                	lw	s10,44(sp)
     e76:	293e                	.insn	2, 0x293e
     e78:	003e                	c.slli	zero,0xf
     e7a:	6c6c6163          	bltu	s8,t1,153c <core::panicking::panic_bounds_check-0xeb58>
     e7e:	685f 7361 655f      	.insn	6, 0x655f7361685f
     e84:	656c                	.insn	2, 0x656c
     e86:	656d                	lui	a0,0x1b
     e88:	746e                	.insn	2, 0x746e
     e8a:	5a5f0073          	.insn	4, 0x5a5f0073
     e8e:	324e                	.insn	2, 0x324e
     e90:	7231                	lui	tp,0xfffec
     e92:	6e69                	lui	t3,0x1a
     e94:	75625f67          	.insn	4, 0x75625f67
     e98:	6666                	.insn	2, 0x6666
     e9a:	7265                	lui	tp,0xffff9
     e9c:	735f 6f6d 656b      	.insn	6, 0x656b6f6d735f
     ea2:	6574                	.insn	2, 0x6574
     ea4:	37317473          	.insn	4, 0x37317473
     ea8:	6c6c6163          	bltu	s8,t1,156a <core::panicking::panic_bounds_check-0xeb2a>
     eac:	685f 7361 655f      	.insn	6, 0x655f7361685f
     eb2:	656c                	.insn	2, 0x656c
     eb4:	656d                	lui	a0,0x1b
     eb6:	746e                	.insn	2, 0x746e
     eb8:	5f383273          	.insn	4, 0x5f383273
     ebc:	7524                	.insn	2, 0x7524
     ebe:	24246237          	lui	tp,0x24246
     ec2:	3775                	jal	e6e <core::panicking::panic_bounds_check-0xf226>
     ec4:	2462                	.insn	2, 0x2462
     ec6:	736f6c63          	bltu	t5,s6,15fe <core::panicking::panic_bounds_check-0xea96>
     eca:	7275                	lui	tp,0xffffd
     ecc:	2465                	jal	1174 <core::panicking::panic_bounds_check-0xef20>
     ece:	3775                	jal	e7a <core::panicking::panic_bounds_check-0xf21a>
     ed0:	2464                	.insn	2, 0x2464
     ed2:	7524                	.insn	2, 0x7524
     ed4:	31246437          	lui	s0,0x31246
     ed8:	32396837          	lui	a6,0x32396
     edc:	3766                	.insn	2, 0x3766
     ede:	6435                	lui	s0,0xd
     ee0:	3038                	.insn	2, 0x3038
     ee2:	3062                	.insn	2, 0x3062
     ee4:	3934                	.insn	2, 0x3934
     ee6:	3566                	.insn	2, 0x3566
     ee8:	3530                	.insn	2, 0x3530
     eea:	0045                	c.nop	17
     eec:	7226                	.insn	2, 0x7226
     eee:	6e69                	lui	t3,0x1a
     ef0:	75625f67          	.insn	4, 0x75625f67
     ef4:	6666                	.insn	2, 0x6666
     ef6:	7265                	lui	tp,0xffff9
     ef8:	735f 6f6d 656b      	.insn	6, 0x656b6f6d735f
     efe:	6574                	.insn	2, 0x6574
     f00:	3a3a7473          	.insn	4, 0x3a3a7473
     f04:	6c6c6163          	bltu	s8,t1,15c6 <core::panicking::panic_bounds_check-0xeace>
     f08:	685f 7361 655f      	.insn	6, 0x655f7361685f
     f0e:	656c                	.insn	2, 0x656c
     f10:	656d                	lui	a0,0x1b
     f12:	746e                	.insn	2, 0x746e
     f14:	7b3a3a73          	.insn	4, 0x7b3a3a73
     f18:	736f6c63          	bltu	t5,s6,1650 <core::panicking::panic_bounds_check-0xea44>
     f1c:	7275                	lui	tp,0xffffd
     f1e:	5f65                	li	t5,-7
     f20:	6e65                	lui	t3,0x19
     f22:	2376                	.insn	2, 0x2376
     f24:	7d30                	.insn	2, 0x7d30
     f26:	5f00                	lw	s0,56(a4)
     f28:	4e5a                	lw	t3,148(sp)
     f2a:	6334                	.insn	2, 0x6334
     f2c:	3465726f          	jal	tp,58272 <__global_pointer$+0x461e6>
     f30:	6968                	.insn	2, 0x6968
     f32:	746e                	.insn	2, 0x746e
     f34:	6239                	lui	tp,0xe
     f36:	616c                	.insn	2, 0x616c
     f38:	625f6b63          	bltu	t5,t0,156e <core::panicking::panic_bounds_check-0xeb26>
     f3c:	3731786f          	jal	a6,18aae <__global_pointer$+0x6a22>
     f40:	3068                	.insn	2, 0x3068
     f42:	6335                	lui	t1,0xd
     f44:	3234                	.insn	2, 0x3234
     f46:	63323037          	lui	zero,0x63323
     f4a:	3034                	.insn	2, 0x3034
     f4c:	6636                	.insn	2, 0x6636
     f4e:	3130                	.insn	2, 0x3130
     f50:	62004537          	lui	a0,0x62004
     f54:	616c                	.insn	2, 0x616c
     f56:	625f6b63          	bltu	t5,t0,158c <core::panicking::panic_bounds_check-0xeb08>
     f5a:	623c786f          	jal	a6,c8d7c <__global_pointer$+0xb6cf0>
     f5e:	3e6c6f6f          	jal	t5,c7344 <__global_pointer$+0xb52b8>
     f62:	6300                	.insn	2, 0x6300
     f64:	6c61                	lui	s8,0x18
     f66:	5f6c                	lw	a1,124(a4)
     f68:	7369                	lui	t1,0xffffa
     f6a:	665f 6c75 006c      	.insn	6, 0x006c6c75665f
     f70:	5a5f 324e 7231      	.insn	6, 0x7231324e5a5f
     f76:	6e69                	lui	t3,0x1a
     f78:	75625f67          	.insn	4, 0x75625f67
     f7c:	6666                	.insn	2, 0x6666
     f7e:	7265                	lui	tp,0xffff9
     f80:	735f 6f6d 656b      	.insn	6, 0x656b6f6d735f
     f86:	6574                	.insn	2, 0x6574
     f88:	32317473          	.insn	4, 0x32317473
     f8c:	6c6c6163          	bltu	s8,t1,164e <core::panicking::panic_bounds_check-0xea46>
     f90:	695f 5f73 7566      	.insn	6, 0x75665f73695f
     f96:	6c6c                	.insn	2, 0x6c6c
     f98:	3832                	.insn	2, 0x3832
     f9a:	245f 3775 2462      	.insn	6, 0x24623775245f
     fa0:	7524                	.insn	2, 0x7524
     fa2:	63246237          	lui	tp,0x63246
     fa6:	6f6c                	.insn	2, 0x6f6c
     fa8:	65727573          	.insn	4, 0x65727573
     fac:	7524                	.insn	2, 0x7524
     fae:	24246437          	lui	s0,0x24246
     fb2:	3775                	jal	f5e <core::panicking::panic_bounds_check-0xf136>
     fb4:	2464                	.insn	2, 0x2464
     fb6:	3731                	jal	ec2 <core::panicking::panic_bounds_check-0xf1d2>
     fb8:	6468                	.insn	2, 0x6468
     fba:	6262                	.insn	2, 0x6262
     fbc:	63623837          	lui	a6,0x63623
     fc0:	3166                	.insn	2, 0x3166
     fc2:	6238                	.insn	2, 0x6238
     fc4:	31336533          	.insn	4, 0x31336533
     fc8:	4538                	lw	a4,72(a0)
     fca:	2600                	.insn	2, 0x2600
     fcc:	6972                	.insn	2, 0x6972
     fce:	676e                	.insn	2, 0x676e
     fd0:	625f 6675 6566      	.insn	6, 0x65666675625f
     fd6:	5f72                	lw	t5,60(sp)
     fd8:	6b6f6d73          	.insn	4, 0x6b6f6d73
     fdc:	7465                	lui	s0,0xffff9
     fde:	7365                	lui	t1,0xffff9
     fe0:	3a74                	.insn	2, 0x3a74
     fe2:	633a                	.insn	2, 0x633a
     fe4:	6c61                	lui	s8,0x18
     fe6:	5f6c                	lw	a1,124(a4)
     fe8:	7369                	lui	t1,0xffffa
     fea:	665f 6c75 3a6c      	.insn	6, 0x3a6c6c75665f
     ff0:	7b3a                	.insn	2, 0x7b3a
     ff2:	736f6c63          	bltu	t5,s6,172a <core::panicking::panic_bounds_check-0xe96a>
     ff6:	7275                	lui	tp,0xffffd
     ff8:	5f65                	li	t5,-7
     ffa:	6e65                	lui	t3,0x19
     ffc:	2376                	.insn	2, 0x2376
     ffe:	7d30                	.insn	2, 0x7d30
    1000:	6300                	.insn	2, 0x6300
    1002:	6c61                	lui	s8,0x18
    1004:	5f6c                	lw	a1,124(a4)
    1006:	656c                	.insn	2, 0x656c
    1008:	006e                	c.slli	zero,0x1b
    100a:	5a5f 324e 7231      	.insn	6, 0x7231324e5a5f
    1010:	6e69                	lui	t3,0x1a
    1012:	75625f67          	.insn	4, 0x75625f67
    1016:	6666                	.insn	2, 0x6666
    1018:	7265                	lui	tp,0xffff9
    101a:	735f 6f6d 656b      	.insn	6, 0x656b6f6d735f
    1020:	6574                	.insn	2, 0x6574
    1022:	63387473          	.insn	4, 0x63387473
    1026:	6c61                	lui	s8,0x18
    1028:	5f6c                	lw	a1,124(a4)
    102a:	656c                	.insn	2, 0x656c
    102c:	326e                	.insn	2, 0x326e
    102e:	5f38                	lw	a4,120(a4)
    1030:	7524                	.insn	2, 0x7524
    1032:	24246237          	lui	tp,0x24246
    1036:	3775                	jal	fe2 <core::panicking::panic_bounds_check-0xf0b2>
    1038:	2462                	.insn	2, 0x2462
    103a:	736f6c63          	bltu	t5,s6,1772 <core::panicking::panic_bounds_check-0xe922>
    103e:	7275                	lui	tp,0xffffd
    1040:	2465                	jal	12e8 <core::panicking::panic_bounds_check-0xedac>
    1042:	3775                	jal	fee <core::panicking::panic_bounds_check-0xf0a6>
    1044:	2464                	.insn	2, 0x2464
    1046:	7524                	.insn	2, 0x7524
    1048:	31246437          	lui	s0,0x31246
    104c:	30616837          	lui	a6,0x30616
    1050:	3761                	jal	fd8 <core::panicking::panic_bounds_check-0xf0bc>
    1052:	6335                	lui	t1,0xd
    1054:	3964                	.insn	2, 0x3964
    1056:	6236                	.insn	2, 0x6236
    1058:	6164                	.insn	2, 0x6164
    105a:	37633463          	.insn	4, 0x37633463
    105e:	0045                	c.nop	17
    1060:	7226                	.insn	2, 0x7226
    1062:	6e69                	lui	t3,0x1a
    1064:	75625f67          	.insn	4, 0x75625f67
    1068:	6666                	.insn	2, 0x6666
    106a:	7265                	lui	tp,0xffff9
    106c:	735f 6f6d 656b      	.insn	6, 0x656b6f6d735f
    1072:	6574                	.insn	2, 0x6574
    1074:	3a3a7473          	.insn	4, 0x3a3a7473
    1078:	6c6c6163          	bltu	s8,t1,173a <core::panicking::panic_bounds_check-0xe95a>
    107c:	6c5f 6e65 3a3a      	.insn	6, 0x3a3a6e656c5f
    1082:	6f6c637b          	.insn	4, 0x6f6c637b
    1086:	65727573          	.insn	4, 0x65727573
    108a:	655f 766e 3023      	.insn	6, 0x3023766e655f
    1090:	007d                	c.nop	31
    1092:	6c6c6163          	bltu	s8,t1,1754 <core::panicking::panic_bounds_check-0xe940>
    1096:	655f 716e 6575      	.insn	6, 0x6575716e655f
    109c:	6575                	lui	a0,0x1d
    109e:	5f00                	lw	s0,56(a4)
    10a0:	4e5a                	lw	t3,148(sp)
    10a2:	3132                	.insn	2, 0x3132
    10a4:	6972                	.insn	2, 0x6972
    10a6:	676e                	.insn	2, 0x676e
    10a8:	625f 6675 6566      	.insn	6, 0x65666675625f
    10ae:	5f72                	lw	t5,60(sp)
    10b0:	6b6f6d73          	.insn	4, 0x6b6f6d73
    10b4:	7465                	lui	s0,0xffff9
    10b6:	7365                	lui	t1,0xffff9
    10b8:	3174                	.insn	2, 0x3174
    10ba:	6332                	.insn	2, 0x6332
    10bc:	6c61                	lui	s8,0x18
    10be:	5f6c                	lw	a1,124(a4)
    10c0:	6e65                	lui	t3,0x19
    10c2:	7571                	lui	a0,0xffffc
    10c4:	7565                	lui	a0,0xffff9
    10c6:	3265                	jal	a6e <core::panicking::panic_bounds_check-0xf626>
    10c8:	5f38                	lw	a4,120(a4)
    10ca:	7524                	.insn	2, 0x7524
    10cc:	24246237          	lui	tp,0x24246
    10d0:	3775                	jal	107c <core::panicking::panic_bounds_check-0xf018>
    10d2:	2462                	.insn	2, 0x2462
    10d4:	736f6c63          	bltu	t5,s6,180c <core::panicking::panic_bounds_check-0xe888>
    10d8:	7275                	lui	tp,0xffffd
    10da:	2465                	jal	1382 <core::panicking::panic_bounds_check-0xed12>
    10dc:	3775                	jal	1088 <core::panicking::panic_bounds_check-0xf00c>
    10de:	2464                	.insn	2, 0x2464
    10e0:	7524                	.insn	2, 0x7524
    10e2:	31246437          	lui	s0,0x31246
    10e6:	66656837          	lui	a6,0x66656
    10ea:	6330                	.insn	2, 0x6330
    10ec:	3965                	jal	da4 <core::panicking::panic_bounds_check-0xf2f0>
    10ee:	64343933          	.insn	4, 0x64343933
    10f2:	35633863          	.insn	4, 0x35633863
    10f6:	3964                	.insn	2, 0x3964
    10f8:	0045                	c.nop	17
    10fa:	7226                	.insn	2, 0x7226
    10fc:	6e69                	lui	t3,0x1a
    10fe:	75625f67          	.insn	4, 0x75625f67
    1102:	6666                	.insn	2, 0x6666
    1104:	7265                	lui	tp,0xffff9
    1106:	735f 6f6d 656b      	.insn	6, 0x656b6f6d735f
    110c:	6574                	.insn	2, 0x6574
    110e:	3a3a7473          	.insn	4, 0x3a3a7473
    1112:	6c6c6163          	bltu	s8,t1,17d4 <core::panicking::panic_bounds_check-0xe8c0>
    1116:	655f 716e 6575      	.insn	6, 0x6575716e655f
    111c:	6575                	lui	a0,0x1d
    111e:	3a3a                	.insn	2, 0x3a3a
    1120:	6f6c637b          	.insn	4, 0x6f6c637b
    1124:	65727573          	.insn	4, 0x65727573
    1128:	655f 766e 3023      	.insn	6, 0x3023766e655f
    112e:	007d                	c.nop	31
    1130:	6c6c6163          	bltu	s8,t1,17f2 <core::panicking::panic_bounds_check-0xe8a2>
    1134:	645f 7165 6575      	.insn	6, 0x65757165645f
    113a:	6575                	lui	a0,0x1d
    113c:	5f00                	lw	s0,56(a4)
    113e:	4e5a                	lw	t3,148(sp)
    1140:	3132                	.insn	2, 0x3132
    1142:	6972                	.insn	2, 0x6972
    1144:	676e                	.insn	2, 0x676e
    1146:	625f 6675 6566      	.insn	6, 0x65666675625f
    114c:	5f72                	lw	t5,60(sp)
    114e:	6b6f6d73          	.insn	4, 0x6b6f6d73
    1152:	7465                	lui	s0,0xffff9
    1154:	7365                	lui	t1,0xffff9
    1156:	3174                	.insn	2, 0x3174
    1158:	6332                	.insn	2, 0x6332
    115a:	6c61                	lui	s8,0x18
    115c:	5f6c                	lw	a1,124(a4)
    115e:	6564                	.insn	2, 0x6564
    1160:	7571                	lui	a0,0xffffc
    1162:	7565                	lui	a0,0xffff9
    1164:	3265                	jal	b0c <core::panicking::panic_bounds_check-0xf588>
    1166:	5f38                	lw	a4,120(a4)
    1168:	7524                	.insn	2, 0x7524
    116a:	24246237          	lui	tp,0x24246
    116e:	3775                	jal	111a <core::panicking::panic_bounds_check-0xef7a>
    1170:	2462                	.insn	2, 0x2462
    1172:	736f6c63          	bltu	t5,s6,18aa <core::panicking::panic_bounds_check-0xe7ea>
    1176:	7275                	lui	tp,0xffffd
    1178:	2465                	jal	1420 <core::panicking::panic_bounds_check-0xec74>
    117a:	3775                	jal	1126 <core::panicking::panic_bounds_check-0xef6e>
    117c:	2464                	.insn	2, 0x2464
    117e:	7524                	.insn	2, 0x7524
    1180:	31246437          	lui	s0,0x31246
    1184:	32386837          	lui	a6,0x32386
    1188:	3035                	jal	9b4 <core::panicking::panic_bounds_check-0xf6e0>
    118a:	3161                	jal	e12 <core::panicking::panic_bounds_check-0xf282>
    118c:	3762                	.insn	2, 0x3762
    118e:	6139                	addi	sp,sp,448
    1190:	3239                	jal	a9e <core::panicking::panic_bounds_check-0xf5f6>
    1192:	6364                	.insn	2, 0x6364
    1194:	3966                	.insn	2, 0x3966
    1196:	0045                	c.nop	17
    1198:	7226                	.insn	2, 0x7226
    119a:	6e69                	lui	t3,0x1a
    119c:	75625f67          	.insn	4, 0x75625f67
    11a0:	6666                	.insn	2, 0x6666
    11a2:	7265                	lui	tp,0xffff9
    11a4:	735f 6f6d 656b      	.insn	6, 0x656b6f6d735f
    11aa:	6574                	.insn	2, 0x6574
    11ac:	3a3a7473          	.insn	4, 0x3a3a7473
    11b0:	6c6c6163          	bltu	s8,t1,1872 <core::panicking::panic_bounds_check-0xe822>
    11b4:	645f 7165 6575      	.insn	6, 0x65757165645f
    11ba:	6575                	lui	a0,0x1d
    11bc:	3a3a                	.insn	2, 0x3a3a
    11be:	6f6c637b          	.insn	4, 0x6f6c637b
    11c2:	65727573          	.insn	4, 0x65727573
    11c6:	655f 766e 3023      	.insn	6, 0x3023766e655f
    11cc:	007d                	c.nop	31
    11ce:	6974704f          	.insn	4, 0x6974704f
    11d2:	693c6e6f          	jal	t3,c8064 <__global_pointer$+0xb5fd8>
    11d6:	003e3233          	sltu	tp,t3,gp
    11da:	5a5f 344e 6f63      	.insn	6, 0x6f63344e5a5f
    11e0:	6572                	.insn	2, 0x6572
    11e2:	6834                	.insn	2, 0x6834
    11e4:	6e69                	lui	t3,0x1a
    11e6:	3974                	.insn	2, 0x3974
    11e8:	6c62                	.insn	2, 0x6c62
    11ea:	6361                	lui	t1,0x18
    11ec:	6f625f6b          	.insn	4, 0x6f625f6b
    11f0:	3178                	.insn	2, 0x3178
    11f2:	62626837          	lui	a6,0x62626
    11f6:	6131                	addi	sp,sp,320
    11f8:	6264                	.insn	2, 0x6264
    11fa:	3931                	jal	e16 <core::panicking::panic_bounds_check-0xf27e>
    11fc:	3964                	.insn	2, 0x3964
    11fe:	6630                	.insn	2, 0x6630
    1200:	3730                	.insn	2, 0x3730
    1202:	00453737          	lui	a4,0x453
    1206:	6c62                	.insn	2, 0x6c62
    1208:	6361                	lui	t1,0x18
    120a:	6f625f6b          	.insn	4, 0x6f625f6b
    120e:	3c78                	.insn	2, 0x3c78
    1210:	65726f63          	bltu	tp,s7,186e <core::panicking::panic_bounds_check-0xe826>
    1214:	3a3a                	.insn	2, 0x3a3a
    1216:	6974706f          	j	490ac <__global_pointer$+0x37020>
    121a:	3a3a6e6f          	jal	t3,a7dbc <__global_pointer$+0x95d30>
    121e:	6974704f          	.insn	4, 0x6974704f
    1222:	693c6e6f          	jal	t3,c80b4 <__global_pointer$+0xb6028>
    1226:	3e3e3233          	.insn	4, 0x3e3e3233
    122a:	6300                	.insn	2, 0x6300
    122c:	6c61                	lui	s8,0x18
    122e:	5f6c                	lw	a1,124(a4)
    1230:	7570                	.insn	2, 0x7570
    1232:	5f006873          	.insn	4, 0x5f006873
    1236:	4e5a                	lw	t3,148(sp)
    1238:	3132                	.insn	2, 0x3132
    123a:	6972                	.insn	2, 0x6972
    123c:	676e                	.insn	2, 0x676e
    123e:	625f 6675 6566      	.insn	6, 0x65666675625f
    1244:	5f72                	lw	t5,60(sp)
    1246:	6b6f6d73          	.insn	4, 0x6b6f6d73
    124a:	7465                	lui	s0,0xffff9
    124c:	7365                	lui	t1,0xffff9
    124e:	3974                	.insn	2, 0x3974
    1250:	6c6c6163          	bltu	s8,t1,1912 <core::panicking::panic_bounds_check-0xe782>
    1254:	705f 7375 3268      	.insn	6, 0x32687375705f
    125a:	5f38                	lw	a4,120(a4)
    125c:	7524                	.insn	2, 0x7524
    125e:	24246237          	lui	tp,0x24246
    1262:	3775                	jal	120e <core::panicking::panic_bounds_check-0xee86>
    1264:	2462                	.insn	2, 0x2462
    1266:	736f6c63          	bltu	t5,s6,199e <core::panicking::panic_bounds_check-0xe6f6>
    126a:	7275                	lui	tp,0xffffd
    126c:	2465                	jal	1514 <core::panicking::panic_bounds_check-0xeb80>
    126e:	3775                	jal	121a <core::panicking::panic_bounds_check-0xee7a>
    1270:	2464                	.insn	2, 0x2464
    1272:	7524                	.insn	2, 0x7524
    1274:	31246437          	lui	s0,0x31246
    1278:	34326837          	lui	a6,0x34326
    127c:	3531                	jal	1088 <core::panicking::panic_bounds_check-0xf00c>
    127e:	3239                	jal	b8c <core::panicking::panic_bounds_check-0xf508>
    1280:	3164                	.insn	2, 0x3164
    1282:	3562                	.insn	2, 0x3562
    1284:	3231                	jal	b90 <core::panicking::panic_bounds_check-0xf504>
    1286:	3639                	jal	d94 <core::panicking::panic_bounds_check-0xf300>
    1288:	3762                	.insn	2, 0x3762
    128a:	0045                	c.nop	17
    128c:	7226                	.insn	2, 0x7226
    128e:	6e69                	lui	t3,0x1a
    1290:	75625f67          	.insn	4, 0x75625f67
    1294:	6666                	.insn	2, 0x6666
    1296:	7265                	lui	tp,0xffff9
    1298:	735f 6f6d 656b      	.insn	6, 0x656b6f6d735f
    129e:	6574                	.insn	2, 0x6574
    12a0:	3a3a7473          	.insn	4, 0x3a3a7473
    12a4:	6c6c6163          	bltu	s8,t1,1966 <core::panicking::panic_bounds_check-0xe72e>
    12a8:	705f 7375 3a68      	.insn	6, 0x3a687375705f
    12ae:	7b3a                	.insn	2, 0x7b3a
    12b0:	736f6c63          	bltu	t5,s6,19e8 <core::panicking::panic_bounds_check-0xe6ac>
    12b4:	7275                	lui	tp,0xffffd
    12b6:	5f65                	li	t5,-7
    12b8:	6e65                	lui	t3,0x19
    12ba:	2376                	.insn	2, 0x2376
    12bc:	7d30                	.insn	2, 0x7d30
    12be:	5f00                	lw	s0,56(a4)
    12c0:	4e5a                	lw	t3,148(sp)
    12c2:	3132                	.insn	2, 0x3132
    12c4:	6972                	.insn	2, 0x6972
    12c6:	676e                	.insn	2, 0x676e
    12c8:	625f 6675 6566      	.insn	6, 0x65666675625f
    12ce:	5f72                	lw	t5,60(sp)
    12d0:	6b6f6d73          	.insn	4, 0x6b6f6d73
    12d4:	7465                	lui	s0,0xffff9
    12d6:	7365                	lui	t1,0xffff9
    12d8:	3274                	.insn	2, 0x3274
    12da:	6336                	.insn	2, 0x6336
    12dc:	6c61                	lui	s8,0x18
    12de:	5f6c                	lw	a1,124(a4)
    12e0:	6572                	.insn	2, 0x6572
    12e2:	6f6d                	lui	t5,0x1b
    12e4:	6576                	.insn	2, 0x6576
    12e6:	665f 7269 7473      	.insn	6, 0x74737269665f
    12ec:	6d5f 7461 6863      	.insn	6, 0x686374616d5f
    12f2:	6e69                	lui	t3,0x1a
    12f4:	5f383267          	.insn	4, 0x5f383267
    12f8:	7524                	.insn	2, 0x7524
    12fa:	24246237          	lui	tp,0x24246
    12fe:	3775                	jal	12aa <core::panicking::panic_bounds_check-0xedea>
    1300:	2462                	.insn	2, 0x2462
    1302:	736f6c63          	bltu	t5,s6,1a3a <core::panicking::panic_bounds_check-0xe65a>
    1306:	7275                	lui	tp,0xffffd
    1308:	2465                	jal	15b0 <core::panicking::panic_bounds_check-0xeae4>
    130a:	3775                	jal	12b6 <core::panicking::panic_bounds_check-0xedde>
    130c:	2464                	.insn	2, 0x2464
    130e:	7524                	.insn	2, 0x7524
    1310:	31246437          	lui	s0,0x31246
    1314:	38616837          	lui	a6,0x38616
    1318:	6366                	.insn	2, 0x6366
    131a:	6331                	lui	t1,0xc
    131c:	3635                	jal	e48 <core::panicking::panic_bounds_check-0xf24c>
    131e:	6438                	.insn	2, 0x6438
    1320:	3362                	.insn	2, 0x3362
    1322:	6330                	.insn	2, 0x6330
    1324:	6665                	lui	a2,0x19
    1326:	0045                	c.nop	17
    1328:	7226                	.insn	2, 0x7226
    132a:	6e69                	lui	t3,0x1a
    132c:	75625f67          	.insn	4, 0x75625f67
    1330:	6666                	.insn	2, 0x6666
    1332:	7265                	lui	tp,0xffff9
    1334:	735f 6f6d 656b      	.insn	6, 0x656b6f6d735f
    133a:	6574                	.insn	2, 0x6574
    133c:	3a3a7473          	.insn	4, 0x3a3a7473
    1340:	6c6c6163          	bltu	s8,t1,1a02 <core::panicking::panic_bounds_check-0xe692>
    1344:	725f 6d65 766f      	.insn	6, 0x766f6d65725f
    134a:	5f65                	li	t5,-7
    134c:	6966                	.insn	2, 0x6966
    134e:	7372                	.insn	2, 0x7372
    1350:	5f74                	lw	a3,124(a4)
    1352:	616d                	addi	sp,sp,240
    1354:	6374                	.insn	2, 0x6374
    1356:	6968                	.insn	2, 0x6968
    1358:	676e                	.insn	2, 0x676e
    135a:	3a3a                	.insn	2, 0x3a3a
    135c:	6f6c637b          	.insn	4, 0x6f6c637b
    1360:	65727573          	.insn	4, 0x65727573
    1364:	655f 766e 3023      	.insn	6, 0x3023766e655f
    136a:	007d                	c.nop	31
    136c:	696c                	.insn	2, 0x696c
    136e:	7262                	.insn	2, 0x7262
    1370:	7261                	lui	tp,0xffff8
    1372:	2f79                	jal	1b10 <core::panicking::panic_bounds_check-0xe584>
    1374:	65726f63          	bltu	tp,s7,19d2 <core::panicking::panic_bounds_check-0xe6c2>
    1378:	6372732f          	.insn	4, 0x6372732f
    137c:	62696c2f          	.insn	4, 0x62696c2f
    1380:	722e                	.insn	2, 0x722e
    1382:	2f402f73          	.insn	4, 0x2f402f73
    1386:	65726f63          	bltu	tp,s7,19e4 <core::panicking::panic_bounds_check-0xe6b0>
    138a:	382e                	.insn	2, 0x382e
    138c:	34316637          	lui	a2,0x34316
    1390:	6236                	.insn	2, 0x6236
    1392:	6530                	.insn	2, 0x6530
    1394:	3261                	jal	d1c <core::panicking::panic_bounds_check-0xf378>
    1396:	66316233          	.insn	4, 0x66316233
    139a:	2d34                	.insn	2, 0x2d34
    139c:	2e756763          	bltu	a0,t2,168a <core::panicking::panic_bounds_check-0xea0a>
    13a0:	0030                	addi	a2,sp,8
    13a2:	7375722f          	.insn	4, 0x7375722f
    13a6:	6374                	.insn	2, 0x6374
    13a8:	3531312f          	.insn	4, 0x3531312f
    13ac:	6539                	lui	a0,0xe
    13ae:	34633837          	lui	a6,0x34633
    13b2:	62373437          	lui	s0,0x62373
    13b6:	3230                	.insn	2, 0x3230
    13b8:	6665                	lui	a2,0x19
    13ba:	3939                	jal	fd8 <core::panicking::panic_bounds_check-0xf0bc>
    13bc:	6536                	.insn	2, 0x6536
    13be:	3535                	jal	11ea <core::panicking::panic_bounds_check-0xeeaa>
    13c0:	3830                	.insn	2, 0x3830
    13c2:	6232                	.insn	2, 0x6232
    13c4:	63343037          	lui	zero,0x63343
    13c8:	3930                	.insn	2, 0x3930
    13ca:	3962                	.insn	2, 0x3962
    13cc:	38353037          	lui	zero,0x38353
    13d0:	0038                	addi	a4,sp,8
    13d2:	6170                	.insn	2, 0x6170
    13d4:	696e                	.insn	2, 0x696e
    13d6:	6e696b63          	bltu	s2,t1,1acc <core::panicking::panic_bounds_check-0xe5c8>
    13da:	525f0067          	jr	1317(t5) # 1b525 <__global_pointer$+0x9499>
    13de:	764e                	.insn	2, 0x764e
    13e0:	346a7343          	.insn	4, 0x346a7343
    13e4:	66365a43          	.insn	4, 0x66365a43
    13e8:	786c                	.insn	2, 0x786c
    13ea:	6678                	.insn	2, 0x6678
    13ec:	5f45                	li	t5,-15
    13ee:	5f5f5f37          	lui	t5,0x5f5f5
    13f2:	7572                	.insn	2, 0x7572
    13f4:	31637473          	.insn	4, 0x31637473
    13f8:	73757237          	lui	tp,0x73757
    13fc:	5f74                	lw	a3,124(a4)
    13fe:	6562                	.insn	2, 0x6562
    1400:	5f6e6967          	.insn	4, 0x5f6e6967
    1404:	6e75                	lui	t3,0x1d
    1406:	646e6977          	.insn	4, 0x646e6977
    140a:	7000                	.insn	2, 0x7000
    140c:	6e61                	lui	t3,0x18
    140e:	6369                	lui	t1,0x1a
    1410:	7000                	.insn	2, 0x7000
    1412:	6e61                	lui	t3,0x18
    1414:	6369                	lui	t1,0x1a
    1416:	695f 666e 006f      	.insn	6, 0x006f666e695f
    141c:	656d                	lui	a0,0x1b
    141e:	67617373          	.insn	4, 0x67617373
    1422:	0065                	c.nop	25
    1424:	6970                	.insn	2, 0x6970
    1426:	6365                	lui	t1,0x19
    1428:	7365                	lui	t1,0xffff9
    142a:	7500                	.insn	2, 0x7500
    142c:	0038                	addi	a4,sp,8
    142e:	7326                	.insn	2, 0x7326
    1430:	7274                	.insn	2, 0x7274
    1432:	2600                	.insn	2, 0x2600
    1434:	7473265b          	.insn	4, 0x7473265b
    1438:	5d72                	lw	s10,60(sp)
    143a:	7000                	.insn	2, 0x7000
    143c:	7469736f          	jal	t1,98b82 <__global_pointer$+0x86af6>
    1440:	6f69                	lui	t5,0x1a
    1442:	006e                	c.slli	zero,0x1b
    1444:	6c66                	.insn	2, 0x6c66
    1446:	6761                	lui	a4,0x18
    1448:	72700073          	.insn	4, 0x72700073
    144c:	6365                	lui	t1,0x19
    144e:	7369                	lui	t1,0xffffa
    1450:	6f69                	lui	t5,0x1a
    1452:	006e                	c.slli	zero,0x1b
    1454:	3175                	jal	1100 <core::panicking::panic_bounds_check-0xef94>
    1456:	0036                	c.slli	zero,0xd
    1458:	7349                	lui	t1,0xffff2
    145a:	5000                	lw	s0,32(s0)
    145c:	7261                	lui	tp,0xffff8
    145e:	6d61                	lui	s10,0x18
    1460:	4900                	lw	s0,16(a0)
    1462:	706d                	c.lui	zero,0xffffb
    1464:	696c                	.insn	2, 0x696c
    1466:	6465                	lui	s0,0x19
    1468:	4300                	lw	s0,0(a4)
    146a:	746e756f          	jal	a0,e8bb0 <__global_pointer$+0xd6b24>
    146e:	7700                	.insn	2, 0x7700
    1470:	6469                	lui	s0,0x1a
    1472:	6874                	.insn	2, 0x6874
    1474:	5000                	lw	s0,32(s0)
    1476:	616c                	.insn	2, 0x616c
    1478:	6f686563          	bltu	a6,s6,1b62 <core::panicking::panic_bounds_check-0xe532>
    147c:	646c                	.insn	2, 0x646c
    147e:	7265                	lui	tp,0xffff9
    1480:	2600                	.insn	2, 0x2600
    1482:	726f635b          	.insn	4, 0x726f635b
    1486:	3a65                	jal	e3e <core::panicking::panic_bounds_check-0xf256>
    1488:	663a                	.insn	2, 0x663a
    148a:	746d                	lui	s0,0xffffb
    148c:	3a3a                	.insn	2, 0x3a3a
    148e:	7472                	.insn	2, 0x7472
    1490:	3a3a                	.insn	2, 0x3a3a
    1492:	6c50                	.insn	2, 0x6c50
    1494:	6361                	lui	t1,0x18
    1496:	6865                	lui	a6,0x19
    1498:	65646c6f          	jal	s8,47aee <__global_pointer$+0x35a62>
    149c:	5d72                	lw	s10,60(sp)
    149e:	4f00                	lw	s0,24(a4)
    14a0:	7470                	.insn	2, 0x7470
    14a2:	6f69                	lui	t5,0x1a
    14a4:	3c6e                	.insn	2, 0x3c6e
    14a6:	5b26                	lw	s6,104(sp)
    14a8:	65726f63          	bltu	tp,s7,1b06 <core::panicking::panic_bounds_check-0xe58e>
    14ac:	3a3a                	.insn	2, 0x3a3a
    14ae:	6d66                	.insn	2, 0x6d66
    14b0:	3a74                	.insn	2, 0x3a74
    14b2:	723a                	.insn	2, 0x723a
    14b4:	3a74                	.insn	2, 0x3a74
    14b6:	503a                	.insn	2, 0x503a
    14b8:	616c                	.insn	2, 0x616c
    14ba:	6f686563          	bltu	a6,s6,1ba4 <core::panicking::panic_bounds_check-0xe4f0>
    14be:	646c                	.insn	2, 0x646c
    14c0:	7265                	lui	tp,0xffff9
    14c2:	3e5d                	jal	1078 <core::panicking::panic_bounds_check-0xf01c>
    14c4:	6100                	.insn	2, 0x6100
    14c6:	6772                	.insn	2, 0x6772
    14c8:	61760073          	.insn	4, 0x61760073
    14cc:	756c                	.insn	2, 0x756c
    14ce:	0065                	c.nop	25
    14d0:	6f6e                	.insn	2, 0x6f6e
    14d2:	5f6e                	lw	t5,248(sp)
    14d4:	756e                	.insn	2, 0x756e
    14d6:	6c6c                	.insn	2, 0x6c6c
    14d8:	7000                	.insn	2, 0x7000
    14da:	746e696f          	jal	s2,e7c20 <__global_pointer$+0xd5b94>
    14de:	7265                	lui	tp,0xffff9
    14e0:	2a00                	.insn	2, 0x2a00
    14e2:	736e6f63          	bltu	t3,s6,1c20 <core::panicking::panic_bounds_check-0xe474>
    14e6:	2074                	.insn	2, 0x2074
    14e8:	2928                	.insn	2, 0x2928
    14ea:	4e00                	lw	s0,24(a2)
    14ec:	754e6e6f          	jal	t3,e7c40 <__global_pointer$+0xd5bb4>
    14f0:	6c6c                	.insn	2, 0x6c6c
    14f2:	283c                	.insn	2, 0x283c
    14f4:	3e29                	jal	100e <core::panicking::panic_bounds_check-0xf086>
    14f6:	6600                	.insn	2, 0x6600
    14f8:	616d726f          	jal	tp,d8b0e <__global_pointer$+0xc6a82>
    14fc:	7474                	.insn	2, 0x7474
    14fe:	7265                	lui	tp,0xffff9
    1500:	7200                	.insn	2, 0x7200
    1502:	7365                	lui	t1,0xffff9
    1504:	6c75                	lui	s8,0x1d
    1506:	0074                	addi	a3,sp,12
    1508:	45006b4f          	.insn	4, 0x45006b4f
    150c:	7272                	.insn	2, 0x7272
    150e:	4500726f          	jal	tp,895e <core::panicking::panic_bounds_check-0x7736>
    1512:	7272                	.insn	2, 0x7272
    1514:	6f00                	.insn	2, 0x6f00
    1516:	7470                	.insn	2, 0x7470
    1518:	6f69                	lui	t5,0x1a
    151a:	736e                	.insn	2, 0x736e
    151c:	4600                	lw	s0,8(a2)
    151e:	616d726f          	jal	tp,d8b34 <__global_pointer$+0xc6aa8>
    1522:	7474                	.insn	2, 0x7474
    1524:	6e69                	lui	t3,0x1a
    1526:	74704f67          	.insn	4, 0x74704f67
    152a:	6f69                	lui	t5,0x1a
    152c:	736e                	.insn	2, 0x736e
    152e:	7600                	.insn	2, 0x7600
    1530:	6174                	.insn	2, 0x6174
    1532:	6c62                	.insn	2, 0x6c62
    1534:	0065                	c.nop	25
    1536:	5b26                	lw	s6,104(sp)
    1538:	7375                	lui	t1,0xffffd
    153a:	7a69                	lui	s4,0xffffa
    153c:	3b65                	jal	12f4 <core::panicking::panic_bounds_check-0xeda0>
    153e:	3620                	.insn	2, 0x3620
    1540:	005d                	c.nop	23
    1542:	6d26                	.insn	2, 0x6d26
    1544:	7475                	lui	s0,0xffffd
    1546:	6420                	.insn	2, 0x6420
    1548:	6e79                	lui	t3,0x1e
    154a:	6320                	.insn	2, 0x6320
    154c:	3a65726f          	jal	tp,588f2 <__global_pointer$+0x46866>
    1550:	663a                	.insn	2, 0x663a
    1552:	746d                	lui	s0,0xffffb
    1554:	3a3a                	.insn	2, 0x3a3a
    1556:	74697257          	.insn	4, 0x74697257
    155a:	0065                	c.nop	25
    155c:	6d26                	.insn	2, 0x6d26
    155e:	7475                	lui	s0,0xffffd
    1560:	6320                	.insn	2, 0x6320
    1562:	3a65726f          	jal	tp,58908 <__global_pointer$+0x4687c>
    1566:	663a                	.insn	2, 0x663a
    1568:	746d                	lui	s0,0xffffb
    156a:	3a3a                	.insn	2, 0x3a3a
    156c:	6f46                	.insn	2, 0x6f46
    156e:	6d72                	.insn	2, 0x6d72
    1570:	7461                	lui	s0,0xffff8
    1572:	6574                	.insn	2, 0x6574
    1574:	0072                	c.slli	zero,0x1c
    1576:	6e75                	lui	t3,0x1d
    1578:	65666173          	.insn	4, 0x65666173
    157c:	6620                	.insn	2, 0x6620
    157e:	286e                	.insn	2, 0x286e
    1580:	65726f63          	bltu	tp,s7,1bde <core::panicking::panic_bounds_check-0xe4b6>
    1584:	3a3a                	.insn	2, 0x3a3a
    1586:	7470                	.insn	2, 0x7470
    1588:	3a72                	.insn	2, 0x3a72
    158a:	6e3a                	.insn	2, 0x6e3a
    158c:	6e5f6e6f          	jal	t3,f8470 <__global_pointer$+0xe63e4>
    1590:	6c75                	lui	s8,0x1d
    1592:	3a6c                	.insn	2, 0x3a6c
    1594:	4e3a                	lw	t3,140(sp)
    1596:	754e6e6f          	jal	t3,e7cea <__global_pointer$+0xd5c5e>
    159a:	6c6c                	.insn	2, 0x6c6c
    159c:	283c                	.insn	2, 0x283c
    159e:	3e29                	jal	10b8 <core::panicking::panic_bounds_check-0xefdc>
    15a0:	202c                	.insn	2, 0x202c
    15a2:	6d26                	.insn	2, 0x6d26
    15a4:	7475                	lui	s0,0xffffd
    15a6:	6320                	.insn	2, 0x6320
    15a8:	3a65726f          	jal	tp,5894e <__global_pointer$+0x468c2>
    15ac:	663a                	.insn	2, 0x663a
    15ae:	746d                	lui	s0,0xffffb
    15b0:	3a3a                	.insn	2, 0x3a3a
    15b2:	6f46                	.insn	2, 0x6f46
    15b4:	6d72                	.insn	2, 0x6d72
    15b6:	7461                	lui	s0,0xffff8
    15b8:	6574                	.insn	2, 0x6574
    15ba:	2972                	.insn	2, 0x2972
    15bc:	2d20                	.insn	2, 0x2d20
    15be:	203e                	.insn	2, 0x203e
    15c0:	65726f63          	bltu	tp,s7,1c1e <core::panicking::panic_bounds_check-0xe476>
    15c4:	3a3a                	.insn	2, 0x3a3a
    15c6:	6572                	.insn	2, 0x6572
    15c8:	746c7573          	.insn	4, 0x746c7573
    15cc:	3a3a                	.insn	2, 0x3a3a
    15ce:	6552                	.insn	2, 0x6552
    15d0:	746c7573          	.insn	4, 0x746c7573
    15d4:	283c                	.insn	2, 0x283c
    15d6:	2c29                	jal	17f0 <core::panicking::panic_bounds_check-0xe8a4>
    15d8:	6320                	.insn	2, 0x6320
    15da:	3a65726f          	jal	tp,58980 <__global_pointer$+0x468f4>
    15de:	663a                	.insn	2, 0x663a
    15e0:	746d                	lui	s0,0xffffb
    15e2:	3a3a                	.insn	2, 0x3a3a
    15e4:	7245                	lui	tp,0xffff1
    15e6:	6f72                	.insn	2, 0x6f72
    15e8:	3e72                	.insn	2, 0x3e72
    15ea:	5f00                	lw	s0,56(a4)
    15ec:	696c                	.insn	2, 0x696c
    15ee:	6566                	.insn	2, 0x6566
    15f0:	6974                	.insn	2, 0x6974
    15f2:	656d                	lui	a0,0x1b
    15f4:	6d00                	.insn	2, 0x6d00
    15f6:	7261                	lui	tp,0xffff8
    15f8:	0072656b          	.insn	4, 0x0072656b
    15fc:	2826                	.insn	2, 0x2826
    15fe:	0029                	c.nop	10
    1600:	6850                	.insn	2, 0x6850
    1602:	6e61                	lui	t3,0x18
    1604:	6f74                	.insn	2, 0x6f74
    1606:	446d                	li	s0,27
    1608:	7461                	lui	s0,0xffff8
    160a:	3c61                	jal	10a2 <core::panicking::panic_bounds_check-0xeff2>
    160c:	2826                	.insn	2, 0x2826
    160e:	3e29                	jal	1128 <core::panicking::panic_bounds_check-0xef6c>
    1610:	4100                	lw	s0,0(a0)
    1612:	6772                	.insn	2, 0x6772
    1614:	6d75                	lui	s10,0x1d
    1616:	6e65                	lui	t3,0x19
    1618:	5474                	lw	a3,108(s0)
    161a:	7079                	c.lui	zero,0xffffe
    161c:	0065                	c.nop	25
    161e:	7241                	lui	tp,0xffff0
    1620:	656d7567          	.insn	4, 0x656d7567
    1624:	746e                	.insn	2, 0x746e
    1626:	2600                	.insn	2, 0x2600
    1628:	726f635b          	.insn	4, 0x726f635b
    162c:	3a65                	jal	fe4 <core::panicking::panic_bounds_check-0xf0b0>
    162e:	663a                	.insn	2, 0x663a
    1630:	746d                	lui	s0,0xffffb
    1632:	3a3a                	.insn	2, 0x3a3a
    1634:	7472                	.insn	2, 0x7472
    1636:	3a3a                	.insn	2, 0x3a3a
    1638:	7241                	lui	tp,0xffff0
    163a:	656d7567          	.insn	4, 0x656d7567
    163e:	746e                	.insn	2, 0x746e
    1640:	005d                	c.nop	23
    1642:	6326                	.insn	2, 0x6326
    1644:	3a65726f          	jal	tp,589ea <__global_pointer$+0x4695e>
    1648:	663a                	.insn	2, 0x663a
    164a:	746d                	lui	s0,0xffffb
    164c:	3a3a                	.insn	2, 0x3a3a
    164e:	7241                	lui	tp,0xffff0
    1650:	656d7567          	.insn	4, 0x656d7567
    1654:	746e                	.insn	2, 0x746e
    1656:	6f6c0073          	.insn	4, 0x6f6c0073
    165a:	69746163          	bltu	s0,s7,1cdc <core::panicking::panic_bounds_check-0xe3b8>
    165e:	2a006e6f          	jal	t3,78fe <core::panicking::panic_bounds_check-0x8796>
    1662:	736e6f63          	bltu	t3,s6,1da0 <core::panicking::panic_bounds_check-0xe2f4>
    1666:	2074                	.insn	2, 0x2074
    1668:	00727473          	.insn	4, 0x00727473
    166c:	6f4e                	.insn	2, 0x6f4e
    166e:	4e6e                	lw	t3,216(sp)
    1670:	6c75                	lui	s8,0x1d
    1672:	3c6c                	.insn	2, 0x3c6c
    1674:	3e727473          	.insn	4, 0x3e727473
    1678:	6c00                	.insn	2, 0x6c00
    167a:	6e69                	lui	t3,0x1a
    167c:	0065                	c.nop	25
    167e:	006c6f63          	bltu	s8,t1,169c <core::panicking::panic_bounds_check-0xe9f8>
    1682:	665f 6c69 6e65      	.insn	6, 0x6e656c69665f
    1688:	6d61                	lui	s10,0x18
    168a:	0065                	c.nop	25
    168c:	6850                	.insn	2, 0x6850
    168e:	6e61                	lui	t3,0x18
    1690:	6f74                	.insn	2, 0x6f74
    1692:	446d                	li	s0,27
    1694:	7461                	lui	s0,0xffff8
    1696:	3c61                	jal	112e <core::panicking::panic_bounds_check-0xef66>
    1698:	7326                	.insn	2, 0x7326
    169a:	7274                	.insn	2, 0x7274
    169c:	003e                	c.slli	zero,0xf
    169e:	6326                	.insn	2, 0x6326
    16a0:	3a65726f          	jal	tp,58a46 <__global_pointer$+0x469ba>
    16a4:	703a                	.insn	2, 0x703a
    16a6:	6e61                	lui	t3,0x18
    16a8:	6369                	lui	t1,0x1a
    16aa:	3a3a                	.insn	2, 0x3a3a
    16ac:	6f6c                	.insn	2, 0x6f6c
    16ae:	69746163          	bltu	s0,s7,1d30 <core::panicking::panic_bounds_check-0xe364>
    16b2:	3a3a6e6f          	jal	t3,a8254 <__global_pointer$+0x961c8>
    16b6:	6f4c                	.insn	2, 0x6f4c
    16b8:	69746163          	bltu	s0,s7,1d3a <core::panicking::panic_bounds_check-0xe35a>
    16bc:	63006e6f          	jal	t3,7cec <core::panicking::panic_bounds_check-0x83a8>
    16c0:	6e61                	lui	t3,0x18
    16c2:	755f 776e 6e69      	.insn	6, 0x6e69776e755f
    16c8:	0064                	addi	s1,sp,12
    16ca:	6f66                	.insn	2, 0x6f66
    16cc:	6372                	.insn	2, 0x6372
    16ce:	5f65                	li	t5,-7
    16d0:	6f6e                	.insn	2, 0x6f6e
    16d2:	625f 6361 746b      	.insn	6, 0x746b6361625f
    16d8:	6172                	.insn	2, 0x6172
    16da:	26006563          	bltu	zero,zero,1944 <core::panicking::panic_bounds_check-0xe750>
    16de:	65726f63          	bltu	tp,s7,1d3c <core::panicking::panic_bounds_check-0xe358>
    16e2:	3a3a                	.insn	2, 0x3a3a
    16e4:	6170                	.insn	2, 0x6170
    16e6:	696e                	.insn	2, 0x696e
    16e8:	703a3a63          	.insn	4, 0x703a3a63
    16ec:	6e61                	lui	t3,0x18
    16ee:	6369                	lui	t1,0x1a
    16f0:	695f 666e 3a6f      	.insn	6, 0x3a6f666e695f
    16f6:	503a                	.insn	2, 0x503a
    16f8:	6e61                	lui	t3,0x18
    16fa:	6369                	lui	t1,0x1a
    16fc:	6e49                	lui	t3,0x12
    16fe:	6f66                	.insn	2, 0x6f66
    1700:	7000                	.insn	2, 0x7000
    1702:	6e61                	lui	t3,0x18
    1704:	6369                	lui	t1,0x1a
    1706:	635f 6e6f 7473      	.insn	6, 0x74736e6f635f
    170c:	5f00                	lw	s0,56(a4)
    170e:	4e5a                	lw	t3,148(sp)
    1710:	3431                	jal	111c <core::panicking::panic_bounds_check-0xef78>
    1712:	5f36                	lw	t5,108(sp)
    1714:	4c24                	lw	s1,88(s0)
    1716:	2454                	.insn	2, 0x2454
    1718:	6972                	.insn	2, 0x6972
    171a:	676e                	.insn	2, 0x676e
    171c:	625f 6675 6566      	.insn	6, 0x65666675625f
    1722:	5f72                	lw	t5,60(sp)
    1724:	6b6f6d73          	.insn	4, 0x6b6f6d73
    1728:	7465                	lui	s0,0xffff9
    172a:	7365                	lui	t1,0xffff9
    172c:	2e74                	.insn	2, 0x2e74
    172e:	632e                	.insn	2, 0x632e
    1730:	656c6c6f          	jal	s8,c7d86 <__global_pointer$+0xb5cfa>
    1734:	6f697463          	bgeu	s2,s6,1e1c <core::panicking::panic_bounds_check-0xe278>
    1738:	736e                	.insn	2, 0x736e
    173a:	2e2e                	.insn	2, 0x2e2e
    173c:	6972                	.insn	2, 0x6972
    173e:	676e                	.insn	2, 0x676e
    1740:	625f 6675 6566      	.insn	6, 0x65666675625f
    1746:	2e72                	.insn	2, 0x2e72
    1748:	522e                	lw	tp,232(sp)
    174a:	6e69                	lui	t3,0x1a
    174c:	66754267          	.insn	4, 0x66754267
    1750:	6566                	.insn	2, 0x6566
    1752:	2472                	.insn	2, 0x2472
    1754:	544c                	lw	a1,44(s0)
    1756:	5424                	lw	s1,104(s0)
    1758:	4724                	lw	s1,72(a4)
    175a:	2454                	.insn	2, 0x2454
    175c:	7524                	.insn	2, 0x7524
    175e:	3032                	.insn	2, 0x3032
    1760:	6124                	.insn	2, 0x6124
    1762:	32752473          	.insn	4, 0x32752473
    1766:	2430                	.insn	2, 0x2430
    1768:	6972                	.insn	2, 0x6972
    176a:	676e                	.insn	2, 0x676e
    176c:	625f 6675 6566      	.insn	6, 0x65666675625f
    1772:	5f72                	lw	t5,60(sp)
    1774:	6b6f6d73          	.insn	4, 0x6b6f6d73
    1778:	7465                	lui	s0,0xffff9
    177a:	7365                	lui	t1,0xffff9
    177c:	2e74                	.insn	2, 0x2e74
    177e:	632e                	.insn	2, 0x632e
    1780:	656c6c6f          	jal	s8,c7dd6 <__global_pointer$+0xb5d4a>
    1784:	6f697463          	bgeu	s2,s6,1e6c <core::panicking::panic_bounds_check-0xe228>
    1788:	736e                	.insn	2, 0x736e
    178a:	2e2e                	.insn	2, 0x2e2e
    178c:	7571                	lui	a0,0xffffc
    178e:	7565                	lui	a0,0xffff9
    1790:	2e65                	jal	1b48 <core::panicking::panic_bounds_check-0xe54c>
    1792:	512e                	lw	sp,232(sp)
    1794:	6575                	lui	a0,0x1d
    1796:	6575                	lui	a0,0x1d
    1798:	4c24                	lw	s1,88(s0)
    179a:	2454                	.insn	2, 0x2454
    179c:	2454                	.insn	2, 0x2454
    179e:	24245447          	.insn	4, 0x24245447
    17a2:	31245447          	.insn	4, 0x31245447
    17a6:	6832                	.insn	2, 0x6832
    17a8:	7361                	lui	t1,0xffff8
    17aa:	655f 656c 656d      	.insn	6, 0x656d656c655f
    17b0:	746e                	.insn	2, 0x746e
    17b2:	68373173          	.insn	4, 0x68373173
    17b6:	3336                	.insn	2, 0x3336
    17b8:	65326463          	bltu	tp,s3,1e00 <core::panicking::panic_bounds_check-0xe294>
    17bc:	3561                	jal	1644 <core::panicking::panic_bounds_check-0xea50>
    17be:	31396363          	bltu	s2,s3,1ac4 <core::panicking::panic_bounds_check-0xe5d0>
    17c2:	6461                	lui	s0,0x18
    17c4:	6661                	lui	a2,0x18
    17c6:	0045                	c.nop	17
    17c8:	6168                	.insn	2, 0x6168
    17ca:	6c655f73          	.insn	4, 0x6c655f73
    17ce:	6d65                	lui	s10,0x19
    17d0:	6e65                	lui	t3,0x19
    17d2:	7374                	.insn	2, 0x7374
    17d4:	693c                	.insn	2, 0x693c
    17d6:	003e3233          	sltu	tp,t3,gp
    17da:	0046                	c.slli	zero,0x11
    17dc:	5a5f 314e 3634      	.insn	6, 0x3634314e5a5f
    17e2:	245f 544c 7224      	.insn	6, 0x7224544c245f
    17e8:	6e69                	lui	t3,0x1a
    17ea:	75625f67          	.insn	4, 0x75625f67
    17ee:	6666                	.insn	2, 0x6666
    17f0:	7265                	lui	tp,0xffff9
    17f2:	735f 6f6d 656b      	.insn	6, 0x656b6f6d735f
    17f8:	6574                	.insn	2, 0x6574
    17fa:	2e2e7473          	.insn	4, 0x2e2e7473
    17fe:	6c6c6f63          	bltu	s8,t1,1edc <core::panicking::panic_bounds_check-0xe1b8>
    1802:	6365                	lui	t1,0x19
    1804:	6974                	.insn	2, 0x6974
    1806:	2e736e6f          	jal	t3,382ec <__global_pointer$+0x26260>
    180a:	722e                	.insn	2, 0x722e
    180c:	6e69                	lui	t3,0x1a
    180e:	75625f67          	.insn	4, 0x75625f67
    1812:	6666                	.insn	2, 0x6666
    1814:	7265                	lui	tp,0xffff9
    1816:	2e2e                	.insn	2, 0x2e2e
    1818:	6952                	.insn	2, 0x6952
    181a:	676e                	.insn	2, 0x676e
    181c:	7542                	.insn	2, 0x7542
    181e:	6666                	.insn	2, 0x6666
    1820:	7265                	lui	tp,0xffff9
    1822:	4c24                	lw	s1,88(s0)
    1824:	2454                	.insn	2, 0x2454
    1826:	2454                	.insn	2, 0x2454
    1828:	24245447          	.insn	4, 0x24245447
    182c:	3275                	jal	11d8 <core::panicking::panic_bounds_check-0xeebc>
    182e:	2430                	.insn	2, 0x2430
    1830:	7361                	lui	t1,0xffff8
    1832:	7524                	.insn	2, 0x7524
    1834:	3032                	.insn	2, 0x3032
    1836:	7224                	.insn	2, 0x7224
    1838:	6e69                	lui	t3,0x1a
    183a:	75625f67          	.insn	4, 0x75625f67
    183e:	6666                	.insn	2, 0x6666
    1840:	7265                	lui	tp,0xffff9
    1842:	735f 6f6d 656b      	.insn	6, 0x656b6f6d735f
    1848:	6574                	.insn	2, 0x6574
    184a:	2e2e7473          	.insn	4, 0x2e2e7473
    184e:	6c6c6f63          	bltu	s8,t1,1f2c <core::panicking::panic_bounds_check-0xe168>
    1852:	6365                	lui	t1,0x19
    1854:	6974                	.insn	2, 0x6974
    1856:	2e736e6f          	jal	t3,3833c <__global_pointer$+0x262b0>
    185a:	712e                	.insn	2, 0x712e
    185c:	6575                	lui	a0,0x1d
    185e:	6575                	lui	a0,0x1d
    1860:	2e2e                	.insn	2, 0x2e2e
    1862:	7551                	lui	a0,0xffff4
    1864:	7565                	lui	a0,0xffff9
    1866:	2465                	jal	1b0e <core::panicking::panic_bounds_check-0xe586>
    1868:	544c                	lw	a1,44(s0)
    186a:	5424                	lw	s1,104(s0)
    186c:	4724                	lw	s1,72(a4)
    186e:	2454                	.insn	2, 0x2454
    1870:	4724                	lw	s1,72(a4)
    1872:	2454                	.insn	2, 0x2454
    1874:	3132                	.insn	2, 0x3132
    1876:	6572                	.insn	2, 0x6572
    1878:	6f6d                	lui	t5,0x1b
    187a:	6576                	.insn	2, 0x6576
    187c:	665f 7269 7473      	.insn	6, 0x74737269665f
    1882:	6d5f 7461 6863      	.insn	6, 0x686374616d5f
    1888:	6e69                	lui	t3,0x1a
    188a:	68373167          	.insn	4, 0x68373167
    188e:	3164                	.insn	2, 0x3164
    1890:	3766                	.insn	2, 0x3766
    1892:	3661                	jal	141a <core::panicking::panic_bounds_check-0xec7a>
    1894:	66366537          	lui	a0,0x66366
    1898:	6239                	lui	tp,0xe
    189a:	3234                	.insn	2, 0x3234
    189c:	3234                	.insn	2, 0x3234
    189e:	0045                	c.nop	17
    18a0:	6572                	.insn	2, 0x6572
    18a2:	6f6d                	lui	t5,0x1b
    18a4:	6576                	.insn	2, 0x6576
    18a6:	665f 7269 7473      	.insn	6, 0x74737269665f
    18ac:	6d5f 7461 6863      	.insn	6, 0x686374616d5f
    18b2:	6e69                	lui	t3,0x1a
    18b4:	33693c67          	.insn	4, 0x33693c67
    18b8:	2c32                	.insn	2, 0x2c32
    18ba:	7220                	.insn	2, 0x7220
    18bc:	6e69                	lui	t3,0x1a
    18be:	75625f67          	.insn	4, 0x75625f67
    18c2:	6666                	.insn	2, 0x6666
    18c4:	7265                	lui	tp,0xffff9
    18c6:	735f 6f6d 656b      	.insn	6, 0x656b6f6d735f
    18cc:	6574                	.insn	2, 0x6574
    18ce:	3a3a7473          	.insn	4, 0x3a3a7473
    18d2:	6c6c6163          	bltu	s8,t1,1f94 <core::panicking::panic_bounds_check-0xe100>
    18d6:	725f 6d65 766f      	.insn	6, 0x766f6d65725f
    18dc:	5f65                	li	t5,-7
    18de:	6966                	.insn	2, 0x6966
    18e0:	7372                	.insn	2, 0x7372
    18e2:	5f74                	lw	a3,124(a4)
    18e4:	616d                	addi	sp,sp,240
    18e6:	6374                	.insn	2, 0x6374
    18e8:	6968                	.insn	2, 0x6968
    18ea:	676e                	.insn	2, 0x676e
    18ec:	3a3a                	.insn	2, 0x3a3a
    18ee:	6f6c637b          	.insn	4, 0x6f6c637b
    18f2:	65727573          	.insn	4, 0x65727573
    18f6:	3a7d3023          	.insn	4, 0x3a7d3023
    18fa:	7b3a                	.insn	2, 0x7b3a
    18fc:	736f6c63          	bltu	t5,s6,2034 <core::panicking::panic_bounds_check-0xe060>
    1900:	7275                	lui	tp,0xffffd
    1902:	5f65                	li	t5,-7
    1904:	6e65                	lui	t3,0x19
    1906:	2376                	.insn	2, 0x2376
    1908:	7d30                	.insn	2, 0x7d30
    190a:	003e                	c.slli	zero,0xf
    190c:	5a5f 314e 3634      	.insn	6, 0x3634314e5a5f
    1912:	245f 544c 7224      	.insn	6, 0x7224544c245f
    1918:	6e69                	lui	t3,0x1a
    191a:	75625f67          	.insn	4, 0x75625f67
    191e:	6666                	.insn	2, 0x6666
    1920:	7265                	lui	tp,0xffff9
    1922:	735f 6f6d 656b      	.insn	6, 0x656b6f6d735f
    1928:	6574                	.insn	2, 0x6574
    192a:	2e2e7473          	.insn	4, 0x2e2e7473
    192e:	6c6c6f63          	bltu	s8,t1,200c <core::panicking::panic_bounds_check-0xe088>
    1932:	6365                	lui	t1,0x19
    1934:	6974                	.insn	2, 0x6974
    1936:	2e736e6f          	jal	t3,3841c <__global_pointer$+0x26390>
    193a:	722e                	.insn	2, 0x722e
    193c:	6e69                	lui	t3,0x1a
    193e:	75625f67          	.insn	4, 0x75625f67
    1942:	6666                	.insn	2, 0x6666
    1944:	7265                	lui	tp,0xffff9
    1946:	2e2e                	.insn	2, 0x2e2e
    1948:	6952                	.insn	2, 0x6952
    194a:	676e                	.insn	2, 0x676e
    194c:	7542                	.insn	2, 0x7542
    194e:	6666                	.insn	2, 0x6666
    1950:	7265                	lui	tp,0xffff9
    1952:	4c24                	lw	s1,88(s0)
    1954:	2454                	.insn	2, 0x2454
    1956:	2454                	.insn	2, 0x2454
    1958:	24245447          	.insn	4, 0x24245447
    195c:	3275                	jal	1308 <core::panicking::panic_bounds_check-0xed8c>
    195e:	2430                	.insn	2, 0x2430
    1960:	7361                	lui	t1,0xffff8
    1962:	7524                	.insn	2, 0x7524
    1964:	3032                	.insn	2, 0x3032
    1966:	7224                	.insn	2, 0x7224
    1968:	6e69                	lui	t3,0x1a
    196a:	75625f67          	.insn	4, 0x75625f67
    196e:	6666                	.insn	2, 0x6666
    1970:	7265                	lui	tp,0xffff9
    1972:	735f 6f6d 656b      	.insn	6, 0x656b6f6d735f
    1978:	6574                	.insn	2, 0x6574
    197a:	2e2e7473          	.insn	4, 0x2e2e7473
    197e:	6c6c6f63          	bltu	s8,t1,205c <core::panicking::panic_bounds_check-0xe038>
    1982:	6365                	lui	t1,0x19
    1984:	6974                	.insn	2, 0x6974
    1986:	2e736e6f          	jal	t3,3846c <__global_pointer$+0x263e0>
    198a:	712e                	.insn	2, 0x712e
    198c:	6575                	lui	a0,0x1d
    198e:	6575                	lui	a0,0x1d
    1990:	2e2e                	.insn	2, 0x2e2e
    1992:	7551                	lui	a0,0xffff4
    1994:	7565                	lui	a0,0xffff9
    1996:	2465                	jal	1c3e <core::panicking::panic_bounds_check-0xe456>
    1998:	544c                	lw	a1,44(s0)
    199a:	5424                	lw	s1,104(s0)
    199c:	4724                	lw	s1,72(a4)
    199e:	2454                	.insn	2, 0x2454
    19a0:	4724                	lw	s1,72(a4)
    19a2:	2454                	.insn	2, 0x2454
    19a4:	6e656c33          	.insn	4, 0x6e656c33
    19a8:	3731                	jal	18b4 <core::panicking::panic_bounds_check-0xe7e0>
    19aa:	6668                	.insn	2, 0x6668
    19ac:	6430                	.insn	2, 0x6430
    19ae:	3234                	.insn	2, 0x3234
    19b0:	6665                	lui	a2,0x19
    19b2:	3130                	.insn	2, 0x3130
    19b4:	3266                	.insn	2, 0x3266
    19b6:	3538                	.insn	2, 0x3538
    19b8:	6235                	lui	tp,0xd
    19ba:	4532                	lw	a0,12(sp)
    19bc:	5f00                	lw	s0,56(a4)
    19be:	4e5a                	lw	t3,148(sp)
    19c0:	3431                	jal	13cc <core::panicking::panic_bounds_check-0xecc8>
    19c2:	5f36                	lw	t5,108(sp)
    19c4:	4c24                	lw	s1,88(s0)
    19c6:	2454                	.insn	2, 0x2454
    19c8:	6972                	.insn	2, 0x6972
    19ca:	676e                	.insn	2, 0x676e
    19cc:	625f 6675 6566      	.insn	6, 0x65666675625f
    19d2:	5f72                	lw	t5,60(sp)
    19d4:	6b6f6d73          	.insn	4, 0x6b6f6d73
    19d8:	7465                	lui	s0,0xffff9
    19da:	7365                	lui	t1,0xffff9
    19dc:	2e74                	.insn	2, 0x2e74
    19de:	632e                	.insn	2, 0x632e
    19e0:	656c6c6f          	jal	s8,c8036 <__global_pointer$+0xb5faa>
    19e4:	6f697463          	bgeu	s2,s6,20cc <core::panicking::panic_bounds_check-0xdfc8>
    19e8:	736e                	.insn	2, 0x736e
    19ea:	2e2e                	.insn	2, 0x2e2e
    19ec:	6972                	.insn	2, 0x6972
    19ee:	676e                	.insn	2, 0x676e
    19f0:	625f 6675 6566      	.insn	6, 0x65666675625f
    19f6:	2e72                	.insn	2, 0x2e72
    19f8:	522e                	lw	tp,232(sp)
    19fa:	6e69                	lui	t3,0x1a
    19fc:	66754267          	.insn	4, 0x66754267
    1a00:	6566                	.insn	2, 0x6566
    1a02:	2472                	.insn	2, 0x2472
    1a04:	544c                	lw	a1,44(s0)
    1a06:	5424                	lw	s1,104(s0)
    1a08:	4724                	lw	s1,72(a4)
    1a0a:	2454                	.insn	2, 0x2454
    1a0c:	7524                	.insn	2, 0x7524
    1a0e:	3032                	.insn	2, 0x3032
    1a10:	6124                	.insn	2, 0x6124
    1a12:	32752473          	.insn	4, 0x32752473
    1a16:	2430                	.insn	2, 0x2430
    1a18:	6972                	.insn	2, 0x6972
    1a1a:	676e                	.insn	2, 0x676e
    1a1c:	625f 6675 6566      	.insn	6, 0x65666675625f
    1a22:	5f72                	lw	t5,60(sp)
    1a24:	6b6f6d73          	.insn	4, 0x6b6f6d73
    1a28:	7465                	lui	s0,0xffff9
    1a2a:	7365                	lui	t1,0xffff9
    1a2c:	2e74                	.insn	2, 0x2e74
    1a2e:	632e                	.insn	2, 0x632e
    1a30:	656c6c6f          	jal	s8,c8086 <__global_pointer$+0xb5ffa>
    1a34:	6f697463          	bgeu	s2,s6,211c <core::panicking::panic_bounds_check-0xdf78>
    1a38:	736e                	.insn	2, 0x736e
    1a3a:	2e2e                	.insn	2, 0x2e2e
    1a3c:	7571                	lui	a0,0xffffc
    1a3e:	7565                	lui	a0,0xffff9
    1a40:	2e65                	jal	1df8 <core::panicking::panic_bounds_check-0xe29c>
    1a42:	512e                	lw	sp,232(sp)
    1a44:	6575                	lui	a0,0x1d
    1a46:	6575                	lui	a0,0x1d
    1a48:	4c24                	lw	s1,88(s0)
    1a4a:	2454                	.insn	2, 0x2454
    1a4c:	2454                	.insn	2, 0x2454
    1a4e:	24245447          	.insn	4, 0x24245447
    1a52:	34245447          	.insn	4, 0x34245447
    1a56:	7570                	.insn	2, 0x7570
    1a58:	37316873          	.insn	4, 0x37316873
    1a5c:	6568                	.insn	2, 0x6568
    1a5e:	6665                	lui	a2,0x19
    1a60:	3332                	.insn	2, 0x3332
    1a62:	6164                	.insn	2, 0x6164
    1a64:	6164                	.insn	2, 0x6164
    1a66:	6365                	lui	t1,0x19
    1a68:	3664                	.insn	2, 0x3664
    1a6a:	6134                	.insn	2, 0x6134
    1a6c:	4536                	lw	a0,76(sp)
    1a6e:	7000                	.insn	2, 0x7000
    1a70:	7375                	lui	t1,0xffffd
    1a72:	3c68                	.insn	2, 0x3c68
    1a74:	3369                	jal	17fe <core::panicking::panic_bounds_check-0xe896>
    1a76:	3e32                	.insn	2, 0x3e32
    1a78:	5f00                	lw	s0,56(a4)
    1a7a:	4e5a                	lw	t3,148(sp)
    1a7c:	3431                	jal	1488 <core::panicking::panic_bounds_check-0xec0c>
    1a7e:	5f36                	lw	t5,108(sp)
    1a80:	4c24                	lw	s1,88(s0)
    1a82:	2454                	.insn	2, 0x2454
    1a84:	6972                	.insn	2, 0x6972
    1a86:	676e                	.insn	2, 0x676e
    1a88:	625f 6675 6566      	.insn	6, 0x65666675625f
    1a8e:	5f72                	lw	t5,60(sp)
    1a90:	6b6f6d73          	.insn	4, 0x6b6f6d73
    1a94:	7465                	lui	s0,0xffff9
    1a96:	7365                	lui	t1,0xffff9
    1a98:	2e74                	.insn	2, 0x2e74
    1a9a:	632e                	.insn	2, 0x632e
    1a9c:	656c6c6f          	jal	s8,c80f2 <__global_pointer$+0xb6066>
    1aa0:	6f697463          	bgeu	s2,s6,2188 <core::panicking::panic_bounds_check-0xdf0c>
    1aa4:	736e                	.insn	2, 0x736e
    1aa6:	2e2e                	.insn	2, 0x2e2e
    1aa8:	6972                	.insn	2, 0x6972
    1aaa:	676e                	.insn	2, 0x676e
    1aac:	625f 6675 6566      	.insn	6, 0x65666675625f
    1ab2:	2e72                	.insn	2, 0x2e72
    1ab4:	522e                	lw	tp,232(sp)
    1ab6:	6e69                	lui	t3,0x1a
    1ab8:	66754267          	.insn	4, 0x66754267
    1abc:	6566                	.insn	2, 0x6566
    1abe:	2472                	.insn	2, 0x2472
    1ac0:	544c                	lw	a1,44(s0)
    1ac2:	5424                	lw	s1,104(s0)
    1ac4:	4724                	lw	s1,72(a4)
    1ac6:	2454                	.insn	2, 0x2454
    1ac8:	7524                	.insn	2, 0x7524
    1aca:	3032                	.insn	2, 0x3032
    1acc:	6124                	.insn	2, 0x6124
    1ace:	32752473          	.insn	4, 0x32752473
    1ad2:	2430                	.insn	2, 0x2430
    1ad4:	6972                	.insn	2, 0x6972
    1ad6:	676e                	.insn	2, 0x676e
    1ad8:	625f 6675 6566      	.insn	6, 0x65666675625f
    1ade:	5f72                	lw	t5,60(sp)
    1ae0:	6b6f6d73          	.insn	4, 0x6b6f6d73
    1ae4:	7465                	lui	s0,0xffff9
    1ae6:	7365                	lui	t1,0xffff9
    1ae8:	2e74                	.insn	2, 0x2e74
    1aea:	632e                	.insn	2, 0x632e
    1aec:	656c6c6f          	jal	s8,c8142 <__global_pointer$+0xb60b6>
    1af0:	6f697463          	bgeu	s2,s6,21d8 <core::panicking::panic_bounds_check-0xdebc>
    1af4:	736e                	.insn	2, 0x736e
    1af6:	2e2e                	.insn	2, 0x2e2e
    1af8:	7571                	lui	a0,0xffffc
    1afa:	7565                	lui	a0,0xffff9
    1afc:	2e65                	jal	1eb4 <core::panicking::panic_bounds_check-0xe1e0>
    1afe:	512e                	lw	sp,232(sp)
    1b00:	6575                	lui	a0,0x1d
    1b02:	6575                	lui	a0,0x1d
    1b04:	4c24                	lw	s1,88(s0)
    1b06:	2454                	.insn	2, 0x2454
    1b08:	2454                	.insn	2, 0x2454
    1b0a:	24245447          	.insn	4, 0x24245447
    1b0e:	35245447          	.insn	4, 0x35245447
    1b12:	6d65                	lui	s10,0x19
    1b14:	7470                	.insn	2, 0x7470
    1b16:	3179                	jal	17a4 <core::panicking::panic_bounds_check-0xe8f0>
    1b18:	33636837          	lui	a6,0x33636
    1b1c:	61393463          	.insn	4, 0x61393463
    1b20:	32376533          	.insn	4, 0x32376533
    1b24:	6336                	.insn	2, 0x6336
    1b26:	3730                	.insn	2, 0x3730
    1b28:	00453137          	lui	sp,0x453
    1b2c:	6d65                	lui	s10,0x19
    1b2e:	7470                	.insn	2, 0x7470
    1b30:	3c79                	jal	15ce <core::panicking::panic_bounds_check-0xeac6>
    1b32:	3369                	jal	18bc <core::panicking::panic_bounds_check-0xe7d8>
    1b34:	3e32                	.insn	2, 0x3e32
    1b36:	5f00                	lw	s0,56(a4)
    1b38:	4e5a                	lw	t3,148(sp)
    1b3a:	3431                	jal	1546 <core::panicking::panic_bounds_check-0xeb4e>
    1b3c:	5f36                	lw	t5,108(sp)
    1b3e:	4c24                	lw	s1,88(s0)
    1b40:	2454                	.insn	2, 0x2454
    1b42:	6972                	.insn	2, 0x6972
    1b44:	676e                	.insn	2, 0x676e
    1b46:	625f 6675 6566      	.insn	6, 0x65666675625f
    1b4c:	5f72                	lw	t5,60(sp)
    1b4e:	6b6f6d73          	.insn	4, 0x6b6f6d73
    1b52:	7465                	lui	s0,0xffff9
    1b54:	7365                	lui	t1,0xffff9
    1b56:	2e74                	.insn	2, 0x2e74
    1b58:	632e                	.insn	2, 0x632e
    1b5a:	656c6c6f          	jal	s8,c81b0 <__global_pointer$+0xb6124>
    1b5e:	6f697463          	bgeu	s2,s6,2246 <core::panicking::panic_bounds_check-0xde4e>
    1b62:	736e                	.insn	2, 0x736e
    1b64:	2e2e                	.insn	2, 0x2e2e
    1b66:	6972                	.insn	2, 0x6972
    1b68:	676e                	.insn	2, 0x676e
    1b6a:	625f 6675 6566      	.insn	6, 0x65666675625f
    1b70:	2e72                	.insn	2, 0x2e72
    1b72:	522e                	lw	tp,232(sp)
    1b74:	6e69                	lui	t3,0x1a
    1b76:	66754267          	.insn	4, 0x66754267
    1b7a:	6566                	.insn	2, 0x6566
    1b7c:	2472                	.insn	2, 0x2472
    1b7e:	544c                	lw	a1,44(s0)
    1b80:	5424                	lw	s1,104(s0)
    1b82:	4724                	lw	s1,72(a4)
    1b84:	2454                	.insn	2, 0x2454
    1b86:	7524                	.insn	2, 0x7524
    1b88:	3032                	.insn	2, 0x3032
    1b8a:	6124                	.insn	2, 0x6124
    1b8c:	32752473          	.insn	4, 0x32752473
    1b90:	2430                	.insn	2, 0x2430
    1b92:	6972                	.insn	2, 0x6972
    1b94:	676e                	.insn	2, 0x676e
    1b96:	625f 6675 6566      	.insn	6, 0x65666675625f
    1b9c:	5f72                	lw	t5,60(sp)
    1b9e:	6b6f6d73          	.insn	4, 0x6b6f6d73
    1ba2:	7465                	lui	s0,0xffff9
    1ba4:	7365                	lui	t1,0xffff9
    1ba6:	2e74                	.insn	2, 0x2e74
    1ba8:	632e                	.insn	2, 0x632e
    1baa:	656c6c6f          	jal	s8,c8200 <__global_pointer$+0xb6174>
    1bae:	6f697463          	bgeu	s2,s6,2296 <core::panicking::panic_bounds_check-0xddfe>
    1bb2:	736e                	.insn	2, 0x736e
    1bb4:	2e2e                	.insn	2, 0x2e2e
    1bb6:	7571                	lui	a0,0xffffc
    1bb8:	7565                	lui	a0,0xffff9
    1bba:	2e65                	jal	1f72 <core::panicking::panic_bounds_check-0xe122>
    1bbc:	512e                	lw	sp,232(sp)
    1bbe:	6575                	lui	a0,0x1d
    1bc0:	6575                	lui	a0,0x1d
    1bc2:	4c24                	lw	s1,88(s0)
    1bc4:	2454                	.insn	2, 0x2454
    1bc6:	2454                	.insn	2, 0x2454
    1bc8:	24245447          	.insn	4, 0x24245447
    1bcc:	36245447          	.insn	4, 0x36245447
    1bd0:	6572                	.insn	2, 0x6572
    1bd2:	6174                	.insn	2, 0x6174
    1bd4:	6e69                	lui	t3,0x1a
    1bd6:	3731                	jal	1ae2 <core::panicking::panic_bounds_check-0xe5b2>
    1bd8:	6568                	.insn	2, 0x6568
    1bda:	38366637          	lui	a2,0x38366
    1bde:	3261                	jal	1566 <core::panicking::panic_bounds_check-0xeb2e>
    1be0:	64663833          	.insn	4, 0x64663833
    1be4:	6635                	lui	a2,0xd
    1be6:	3131                	jal	17f2 <core::panicking::panic_bounds_check-0xe8a2>
    1be8:	4539                	li	a0,14
    1bea:	7200                	.insn	2, 0x7200
    1bec:	7465                	lui	s0,0xffff9
    1bee:	6961                	lui	s2,0x18
    1bf0:	3c6e                	.insn	2, 0x3c6e
    1bf2:	3369                	jal	197c <core::panicking::panic_bounds_check-0xe718>
    1bf4:	2c32                	.insn	2, 0x2c32
    1bf6:	7220                	.insn	2, 0x7220
    1bf8:	6e69                	lui	t3,0x1a
    1bfa:	75625f67          	.insn	4, 0x75625f67
    1bfe:	6666                	.insn	2, 0x6666
    1c00:	7265                	lui	tp,0xffff9
    1c02:	735f 6f6d 656b      	.insn	6, 0x656b6f6d735f
    1c08:	6574                	.insn	2, 0x6574
    1c0a:	3a3a7473          	.insn	4, 0x3a3a7473
    1c0e:	6c6c6163          	bltu	s8,t1,22d0 <core::panicking::panic_bounds_check-0xddc4>
    1c12:	725f 7465 6961      	.insn	6, 0x69617465725f
    1c18:	3a6e                	.insn	2, 0x3a6e
    1c1a:	7b3a                	.insn	2, 0x7b3a
    1c1c:	736f6c63          	bltu	t5,s6,2354 <core::panicking::panic_bounds_check-0xdd40>
    1c20:	7275                	lui	tp,0xffffd
    1c22:	2365                	jal	21ca <core::panicking::panic_bounds_check-0xdeca>
    1c24:	7d30                	.insn	2, 0x7d30
    1c26:	3a3a                	.insn	2, 0x3a3a
    1c28:	6f6c637b          	.insn	4, 0x6f6c637b
    1c2c:	65727573          	.insn	4, 0x65727573
    1c30:	655f 766e 3023      	.insn	6, 0x3023766e655f
    1c36:	3e7d                	jal	17f4 <core::panicking::panic_bounds_check-0xe8a0>
    1c38:	5f00                	lw	s0,56(a4)
    1c3a:	4e5a                	lw	t3,148(sp)
    1c3c:	3431                	jal	1648 <core::panicking::panic_bounds_check-0xea4c>
    1c3e:	5f36                	lw	t5,108(sp)
    1c40:	4c24                	lw	s1,88(s0)
    1c42:	2454                	.insn	2, 0x2454
    1c44:	6972                	.insn	2, 0x6972
    1c46:	676e                	.insn	2, 0x676e
    1c48:	625f 6675 6566      	.insn	6, 0x65666675625f
    1c4e:	5f72                	lw	t5,60(sp)
    1c50:	6b6f6d73          	.insn	4, 0x6b6f6d73
    1c54:	7465                	lui	s0,0xffff9
    1c56:	7365                	lui	t1,0xffff9
    1c58:	2e74                	.insn	2, 0x2e74
    1c5a:	632e                	.insn	2, 0x632e
    1c5c:	656c6c6f          	jal	s8,c82b2 <__global_pointer$+0xb6226>
    1c60:	6f697463          	bgeu	s2,s6,2348 <core::panicking::panic_bounds_check-0xdd4c>
    1c64:	736e                	.insn	2, 0x736e
    1c66:	2e2e                	.insn	2, 0x2e2e
    1c68:	6972                	.insn	2, 0x6972
    1c6a:	676e                	.insn	2, 0x676e
    1c6c:	625f 6675 6566      	.insn	6, 0x65666675625f
    1c72:	2e72                	.insn	2, 0x2e72
    1c74:	522e                	lw	tp,232(sp)
    1c76:	6e69                	lui	t3,0x1a
    1c78:	66754267          	.insn	4, 0x66754267
    1c7c:	6566                	.insn	2, 0x6566
    1c7e:	2472                	.insn	2, 0x2472
    1c80:	544c                	lw	a1,44(s0)
    1c82:	5424                	lw	s1,104(s0)
    1c84:	4724                	lw	s1,72(a4)
    1c86:	2454                	.insn	2, 0x2454
    1c88:	7524                	.insn	2, 0x7524
    1c8a:	3032                	.insn	2, 0x3032
    1c8c:	6124                	.insn	2, 0x6124
    1c8e:	32752473          	.insn	4, 0x32752473
    1c92:	2430                	.insn	2, 0x2430
    1c94:	6972                	.insn	2, 0x6972
    1c96:	676e                	.insn	2, 0x676e
    1c98:	625f 6675 6566      	.insn	6, 0x65666675625f
    1c9e:	5f72                	lw	t5,60(sp)
    1ca0:	6b6f6d73          	.insn	4, 0x6b6f6d73
    1ca4:	7465                	lui	s0,0xffff9
    1ca6:	7365                	lui	t1,0xffff9
    1ca8:	2e74                	.insn	2, 0x2e74
    1caa:	632e                	.insn	2, 0x632e
    1cac:	656c6c6f          	jal	s8,c8302 <__global_pointer$+0xb6276>
    1cb0:	6f697463          	bgeu	s2,s6,2398 <core::panicking::panic_bounds_check-0xdcfc>
    1cb4:	736e                	.insn	2, 0x736e
    1cb6:	2e2e                	.insn	2, 0x2e2e
    1cb8:	7571                	lui	a0,0xffffc
    1cba:	7565                	lui	a0,0xffff9
    1cbc:	2e65                	jal	2074 <core::panicking::panic_bounds_check-0xe020>
    1cbe:	512e                	lw	sp,232(sp)
    1cc0:	6575                	lui	a0,0x1d
    1cc2:	6575                	lui	a0,0x1d
    1cc4:	4c24                	lw	s1,88(s0)
    1cc6:	2454                	.insn	2, 0x2454
    1cc8:	2454                	.insn	2, 0x2454
    1cca:	24245447          	.insn	4, 0x24245447
    1cce:	37245447          	.insn	4, 0x37245447
    1cd2:	6564                	.insn	2, 0x6564
    1cd4:	7571                	lui	a0,0xffffc
    1cd6:	7565                	lui	a0,0xffff9
    1cd8:	3165                	jal	1980 <core::panicking::panic_bounds_check-0xe714>
    1cda:	66666837          	lui	a6,0x66666
    1cde:	33643533          	.insn	4, 0x33643533
    1ce2:	3638                	.insn	2, 0x3638
    1ce4:	3338                	.insn	2, 0x3338
    1ce6:	6566                	.insn	2, 0x6566
    1ce8:	61333233          	.insn	4, 0x61333233
    1cec:	0045                	c.nop	17
    1cee:	6564                	.insn	2, 0x6564
    1cf0:	7571                	lui	a0,0xffffc
    1cf2:	7565                	lui	a0,0xffff9
    1cf4:	3c65                	jal	17ac <core::panicking::panic_bounds_check-0xe8e8>
    1cf6:	3369                	jal	1a80 <core::panicking::panic_bounds_check-0xe614>
    1cf8:	3e32                	.insn	2, 0x3e32
    1cfa:	5f00                	lw	s0,56(a4)
    1cfc:	4e5a                	lw	t3,148(sp)
    1cfe:	3431                	jal	170a <core::panicking::panic_bounds_check-0xe98a>
    1d00:	5f36                	lw	t5,108(sp)
    1d02:	4c24                	lw	s1,88(s0)
    1d04:	2454                	.insn	2, 0x2454
    1d06:	6972                	.insn	2, 0x6972
    1d08:	676e                	.insn	2, 0x676e
    1d0a:	625f 6675 6566      	.insn	6, 0x65666675625f
    1d10:	5f72                	lw	t5,60(sp)
    1d12:	6b6f6d73          	.insn	4, 0x6b6f6d73
    1d16:	7465                	lui	s0,0xffff9
    1d18:	7365                	lui	t1,0xffff9
    1d1a:	2e74                	.insn	2, 0x2e74
    1d1c:	632e                	.insn	2, 0x632e
    1d1e:	656c6c6f          	jal	s8,c8374 <__global_pointer$+0xb62e8>
    1d22:	6f697463          	bgeu	s2,s6,240a <core::panicking::panic_bounds_check-0xdc8a>
    1d26:	736e                	.insn	2, 0x736e
    1d28:	2e2e                	.insn	2, 0x2e2e
    1d2a:	6972                	.insn	2, 0x6972
    1d2c:	676e                	.insn	2, 0x676e
    1d2e:	625f 6675 6566      	.insn	6, 0x65666675625f
    1d34:	2e72                	.insn	2, 0x2e72
    1d36:	522e                	lw	tp,232(sp)
    1d38:	6e69                	lui	t3,0x1a
    1d3a:	66754267          	.insn	4, 0x66754267
    1d3e:	6566                	.insn	2, 0x6566
    1d40:	2472                	.insn	2, 0x2472
    1d42:	544c                	lw	a1,44(s0)
    1d44:	5424                	lw	s1,104(s0)
    1d46:	4724                	lw	s1,72(a4)
    1d48:	2454                	.insn	2, 0x2454
    1d4a:	7524                	.insn	2, 0x7524
    1d4c:	3032                	.insn	2, 0x3032
    1d4e:	6124                	.insn	2, 0x6124
    1d50:	32752473          	.insn	4, 0x32752473
    1d54:	2430                	.insn	2, 0x2430
    1d56:	6972                	.insn	2, 0x6972
    1d58:	676e                	.insn	2, 0x676e
    1d5a:	625f 6675 6566      	.insn	6, 0x65666675625f
    1d60:	5f72                	lw	t5,60(sp)
    1d62:	6b6f6d73          	.insn	4, 0x6b6f6d73
    1d66:	7465                	lui	s0,0xffff9
    1d68:	7365                	lui	t1,0xffff9
    1d6a:	2e74                	.insn	2, 0x2e74
    1d6c:	632e                	.insn	2, 0x632e
    1d6e:	656c6c6f          	jal	s8,c83c4 <__global_pointer$+0xb6338>
    1d72:	6f697463          	bgeu	s2,s6,245a <core::panicking::panic_bounds_check-0xdc3a>
    1d76:	736e                	.insn	2, 0x736e
    1d78:	2e2e                	.insn	2, 0x2e2e
    1d7a:	7571                	lui	a0,0xffffc
    1d7c:	7565                	lui	a0,0xffff9
    1d7e:	2e65                	jal	2136 <core::panicking::panic_bounds_check-0xdf5e>
    1d80:	512e                	lw	sp,232(sp)
    1d82:	6575                	lui	a0,0x1d
    1d84:	6575                	lui	a0,0x1d
    1d86:	4c24                	lw	s1,88(s0)
    1d88:	2454                	.insn	2, 0x2454
    1d8a:	2454                	.insn	2, 0x2454
    1d8c:	24245447          	.insn	4, 0x24245447
    1d90:	37245447          	.insn	4, 0x37245447
    1d94:	6e65                	lui	t3,0x19
    1d96:	7571                	lui	a0,0xffffc
    1d98:	7565                	lui	a0,0xffff9
    1d9a:	3165                	jal	1a42 <core::panicking::panic_bounds_check-0xe652>
    1d9c:	39386837          	lui	a6,0x39386
    1da0:	3931                	jal	19bc <core::panicking::panic_bounds_check-0xe6d8>
    1da2:	3462                	.insn	2, 0x3462
    1da4:	31663137          	lui	sp,0x31663
    1da8:	3232                	.insn	2, 0x3232
    1daa:	3866                	.insn	2, 0x3866
    1dac:	00453737          	lui	a4,0x453
    1db0:	6e65                	lui	t3,0x19
    1db2:	7571                	lui	a0,0xffffc
    1db4:	7565                	lui	a0,0xffff9
    1db6:	3c65                	jal	186e <core::panicking::panic_bounds_check-0xe826>
    1db8:	3369                	jal	1b42 <core::panicking::panic_bounds_check-0xe552>
    1dba:	3e32                	.insn	2, 0x3e32
    1dbc:	5f00                	lw	s0,56(a4)
    1dbe:	4e5a                	lw	t3,148(sp)
    1dc0:	3431                	jal	17cc <core::panicking::panic_bounds_check-0xe8c8>
    1dc2:	5f36                	lw	t5,108(sp)
    1dc4:	4c24                	lw	s1,88(s0)
    1dc6:	2454                	.insn	2, 0x2454
    1dc8:	6972                	.insn	2, 0x6972
    1dca:	676e                	.insn	2, 0x676e
    1dcc:	625f 6675 6566      	.insn	6, 0x65666675625f
    1dd2:	5f72                	lw	t5,60(sp)
    1dd4:	6b6f6d73          	.insn	4, 0x6b6f6d73
    1dd8:	7465                	lui	s0,0xffff9
    1dda:	7365                	lui	t1,0xffff9
    1ddc:	2e74                	.insn	2, 0x2e74
    1dde:	632e                	.insn	2, 0x632e
    1de0:	656c6c6f          	jal	s8,c8436 <__global_pointer$+0xb63aa>
    1de4:	6f697463          	bgeu	s2,s6,24cc <core::panicking::panic_bounds_check-0xdbc8>
    1de8:	736e                	.insn	2, 0x736e
    1dea:	2e2e                	.insn	2, 0x2e2e
    1dec:	6972                	.insn	2, 0x6972
    1dee:	676e                	.insn	2, 0x676e
    1df0:	625f 6675 6566      	.insn	6, 0x65666675625f
    1df6:	2e72                	.insn	2, 0x2e72
    1df8:	522e                	lw	tp,232(sp)
    1dfa:	6e69                	lui	t3,0x1a
    1dfc:	66754267          	.insn	4, 0x66754267
    1e00:	6566                	.insn	2, 0x6566
    1e02:	2472                	.insn	2, 0x2472
    1e04:	544c                	lw	a1,44(s0)
    1e06:	5424                	lw	s1,104(s0)
    1e08:	4724                	lw	s1,72(a4)
    1e0a:	2454                	.insn	2, 0x2454
    1e0c:	7524                	.insn	2, 0x7524
    1e0e:	3032                	.insn	2, 0x3032
    1e10:	6124                	.insn	2, 0x6124
    1e12:	32752473          	.insn	4, 0x32752473
    1e16:	2430                	.insn	2, 0x2430
    1e18:	6972                	.insn	2, 0x6972
    1e1a:	676e                	.insn	2, 0x676e
    1e1c:	625f 6675 6566      	.insn	6, 0x65666675625f
    1e22:	5f72                	lw	t5,60(sp)
    1e24:	6b6f6d73          	.insn	4, 0x6b6f6d73
    1e28:	7465                	lui	s0,0xffff9
    1e2a:	7365                	lui	t1,0xffff9
    1e2c:	2e74                	.insn	2, 0x2e74
    1e2e:	632e                	.insn	2, 0x632e
    1e30:	656c6c6f          	jal	s8,c8486 <__global_pointer$+0xb63fa>
    1e34:	6f697463          	bgeu	s2,s6,251c <core::panicking::panic_bounds_check-0xdb78>
    1e38:	736e                	.insn	2, 0x736e
    1e3a:	2e2e                	.insn	2, 0x2e2e
    1e3c:	7571                	lui	a0,0xffffc
    1e3e:	7565                	lui	a0,0xffff9
    1e40:	2e65                	jal	21f8 <core::panicking::panic_bounds_check-0xde9c>
    1e42:	512e                	lw	sp,232(sp)
    1e44:	6575                	lui	a0,0x1d
    1e46:	6575                	lui	a0,0x1d
    1e48:	4c24                	lw	s1,88(s0)
    1e4a:	2454                	.insn	2, 0x2454
    1e4c:	2454                	.insn	2, 0x2454
    1e4e:	24245447          	.insn	4, 0x24245447
    1e52:	37245447          	.insn	4, 0x37245447
    1e56:	7369                	lui	t1,0xffffa
    1e58:	665f 6c75 316c      	.insn	6, 0x316c6c75665f
    1e5e:	36376837          	lui	a6,0x36376
    1e62:	3238                	.insn	2, 0x3238
    1e64:	3361                	jal	1bec <core::panicking::panic_bounds_check-0xe4a8>
    1e66:	6139                	addi	sp,sp,448
    1e68:	32666133          	.insn	4, 0x32666133
    1e6c:	3636                	.insn	2, 0x3636
    1e6e:	3061                	jal	16f6 <core::panicking::panic_bounds_check-0xe99e>
    1e70:	0045                	c.nop	17
    1e72:	7369                	lui	t1,0xffffa
    1e74:	665f 6c75 3c6c      	.insn	6, 0x3c6c6c75665f
    1e7a:	3369                	jal	1c04 <core::panicking::panic_bounds_check-0xe490>
    1e7c:	3e32                	.insn	2, 0x3e32
    1e7e:	6600                	.insn	2, 0x6600
    1e80:	6d006f6f          	jal	t5,8550 <core::panicking::panic_bounds_check-0x7b44>
    1e84:	6961                	lui	s2,0x18
    1e86:	006e                	c.slli	zero,0x1b
    1e88:	735f 6174 7472      	.insn	6, 0x74726174735f
    1e8e:	5f00                	lw	s0,56(a4)
    1e90:	615f 6165 6962      	.insn	6, 0x69626165615f
    1e96:	755f 776e 6e69      	.insn	6, 0x6e69776e755f
    1e9c:	5f64                	lw	s1,124(a4)
    1e9e:	5f707063          	bgeu	zero,s7,247e <core::panicking::panic_bounds_check-0xdc16>
    1ea2:	7270                	.insn	2, 0x7270
    1ea4:	0030                	addi	a2,sp,8
    1ea6:	5a5f 344e 6f63      	.insn	6, 0x6f63344e5a5f
    1eac:	6572                	.insn	2, 0x6572
    1eae:	7039                	c.lui	zero,0xfffee
    1eb0:	6e61                	lui	t3,0x18
    1eb2:	6369                	lui	t1,0x1a
    1eb4:	676e696b          	.insn	4, 0x676e696b
    1eb8:	3831                	jal	16d4 <core::panicking::panic_bounds_check-0xe9c0>
    1eba:	6170                	.insn	2, 0x6170
    1ebc:	696e                	.insn	2, 0x696e
    1ebe:	6f625f63          	bge	tp,s6,25bc <core::panicking::panic_bounds_check-0xdad8>
    1ec2:	6e75                	lui	t3,0x1d
    1ec4:	7364                	.insn	2, 0x7364
    1ec6:	635f 6568 6b63      	.insn	6, 0x6b636568635f
    1ecc:	3731                	jal	1dd8 <core::panicking::panic_bounds_check-0xe2bc>
    1ece:	6368                	.insn	2, 0x6368
    1ed0:	3731                	jal	1ddc <core::panicking::panic_bounds_check-0xe2b8>
    1ed2:	30313537          	lui	a0,0x30313
    1ed6:	3465                	jal	197e <core::panicking::panic_bounds_check-0xe716>
    1ed8:	66366437          	lui	s0,0x66366
    1edc:	45333433          	.insn	4, 0x45333433
    1ee0:	7000                	.insn	2, 0x7000
    1ee2:	6e61                	lui	t3,0x18
    1ee4:	6369                	lui	t1,0x1a
    1ee6:	625f 756f 646e      	.insn	6, 0x646e756f625f
    1eec:	68635f73          	.insn	4, 0x68635f73
    1ef0:	6365                	lui	t1,0x19
    1ef2:	5a5f006b          	.insn	4, 0x5a5f006b
    1ef6:	344e                	.insn	2, 0x344e
    1ef8:	65726f63          	bltu	tp,s7,2556 <core::panicking::panic_bounds_check-0xdb3e>
    1efc:	7039                	c.lui	zero,0xfffee
    1efe:	6e61                	lui	t3,0x18
    1f00:	6369                	lui	t1,0x1a
    1f02:	676e696b          	.insn	4, 0x676e696b
    1f06:	7039                	c.lui	zero,0xfffee
    1f08:	6e61                	lui	t3,0x18
    1f0a:	6369                	lui	t1,0x1a
    1f0c:	665f 746d 3731      	.insn	6, 0x3731746d665f
    1f12:	6468                	.insn	2, 0x6468
    1f14:	3430                	.insn	2, 0x3430
    1f16:	6366                	.insn	2, 0x6366
    1f18:	38653937          	lui	s2,0x38653
    1f1c:	3538                	.insn	2, 0x3538
    1f1e:	3165                	jal	1bc6 <core::panicking::panic_bounds_check-0xe4ce>
    1f20:	3539                	jal	1d2e <core::panicking::panic_bounds_check-0xe366>
    1f22:	4564                	lw	s1,76(a0)
    1f24:	7000                	.insn	2, 0x7000
    1f26:	6e61                	lui	t3,0x18
    1f28:	6369                	lui	t1,0x1a
    1f2a:	665f 746d 5f00      	.insn	6, 0x5f00746d665f
    1f30:	4e5a                	lw	t3,148(sp)
    1f32:	6334                	.insn	2, 0x6334
    1f34:	3965726f          	jal	tp,592ca <__global_pointer$+0x4723e>
    1f38:	6170                	.insn	2, 0x6170
    1f3a:	696e                	.insn	2, 0x696e
    1f3c:	6e696b63          	bltu	s2,t1,2632 <core::panicking::panic_bounds_check-0xda62>
    1f40:	70313167          	.insn	4, 0x70313167
    1f44:	6e61                	lui	t3,0x18
    1f46:	6369                	lui	t1,0x1a
    1f48:	635f 6e6f 7473      	.insn	6, 0x74736e6f635f
    1f4e:	3332                	.insn	2, 0x3332
    1f50:	6170                	.insn	2, 0x6170
    1f52:	696e                	.insn	2, 0x696e
    1f54:	6f635f63          	bge	t1,s6,2652 <core::panicking::panic_bounds_check-0xda42>
    1f58:	736e                	.insn	2, 0x736e
    1f5a:	5f74                	lw	a3,124(a4)
    1f5c:	6572                	.insn	2, 0x6572
    1f5e:	5f6d                	li	t5,-5
    1f60:	7962                	.insn	2, 0x7962
    1f62:	7a5f 7265 316f      	.insn	6, 0x316f72657a5f
    1f68:	64636837          	lui	a6,0x64636
    1f6c:	3361                	jal	1cf4 <core::panicking::panic_bounds_check-0xe3a0>
    1f6e:	3931                	jal	1b8a <core::panicking::panic_bounds_check-0xe50a>
    1f70:	36363137          	lui	sp,0x36363
    1f74:	3561                	jal	1dfc <core::panicking::panic_bounds_check-0xe298>
    1f76:	3730                	.insn	2, 0x3730
    1f78:	3831                	jal	1794 <core::panicking::panic_bounds_check-0xe900>
    1f7a:	0045                	c.nop	17
    1f7c:	6170                	.insn	2, 0x6170
    1f7e:	696e                	.insn	2, 0x696e
    1f80:	6f635f63          	bge	t1,s6,267e <core::panicking::panic_bounds_check-0xda16>
    1f84:	736e                	.insn	2, 0x736e
    1f86:	5f74                	lw	a3,124(a4)
    1f88:	6572                	.insn	2, 0x6572
    1f8a:	5f6d                	li	t5,-5
    1f8c:	7962                	.insn	2, 0x7962
    1f8e:	7a5f 7265 006f      	.insn	6, 0x006f72657a5f
    1f94:	4c54554f          	.insn	4, 0x4c54554f
    1f98:	4e49                	li	t3,18
    1f9a:	4445                	li	s0,17
    1f9c:	465f 4e55 5443      	.insn	6, 0x54434e55465f
    1fa2:	4f49                	li	t5,18
    1fa4:	5f4e                	lw	t5,240(sp)
    1fa6:	0030                	addi	a2,sp,8
    1fa8:	6972                	.insn	2, 0x6972
    1faa:	676e                	.insn	2, 0x676e
    1fac:	6c5f 6e65 6e00      	.insn	6, 0x6e006e656c5f
    1fb2:	7865                	lui	a6,0xffff9
    1fb4:	5f74                	lw	a3,124(a4)
    1fb6:	746f6c73          	.insn	4, 0x746f6c73
    1fba:	7600                	.insn	2, 0x7600
    1fbc:	6c61                	lui	s8,0x18
    1fbe:	7300                	.insn	2, 0x7300
    1fc0:	6372                	.insn	2, 0x6372
    1fc2:	6400                	.insn	2, 0x6400
    1fc4:	72007473          	.insn	4, 0x72007473
    1fc8:	6769                	lui	a4,0x1a
    1fca:	7468                	.insn	2, 0x7468
    1fcc:	6c00                	.insn	2, 0x6c00
    1fce:	6665                	lui	a2,0x19
    1fd0:	0074                	addi	a3,sp,12
    1fd2:	726f7473          	.insn	4, 0x726f7473
    1fd6:	6761                	lui	a4,0x18
    1fd8:	0065                	c.nop	25

Disassembly of section .debug_loc:

00000000 <.debug_loc>:
   0:	ffff                	.insn	2, 0xffff
   2:	ffff                	.insn	2, 0xffff
   4:	00b6                	slli	ra,ra,0xd
   6:	0001                	nop
   8:	0000                	unimp
   a:	0000                	unimp
   c:	0004                	.insn	2, 0x0004
   e:	0000                	unimp
  10:	0001                	nop
  12:	005a                	c.slli	zero,0x16
  14:	0000                	unimp
  16:	0000                	unimp
  18:	0000                	unimp
  1a:	ff00                	.insn	2, 0xff00
  1c:	ffff                	.insn	2, 0xffff
  1e:	0100b6ff 00000400 	.insn	16, 0x5a00010000000600000004000100b6ff
  26:	00000600 5a000100 
	...
  36:	ffff                	.insn	2, 0xffff
  38:	ffff                	.insn	2, 0xffff
  3a:	00c2                	slli	ra,ra,0x10
  3c:	0001                	nop
  3e:	0000                	unimp
  40:	0000                	unimp
  42:	0030                	addi	a2,sp,8
  44:	0000                	unimp
  46:	0001                	nop
  48:	325a                	.insn	2, 0x325a
  4a:	0000                	unimp
  4c:	5200                	lw	s0,32(a2)
  4e:	0000                	unimp
  50:	0100                	addi	s0,sp,128
  52:	5a00                	lw	s0,48(a2)
	...
  5c:	ffff                	.insn	2, 0xffff
  5e:	ffff                	.insn	2, 0xffff
  60:	00c2                	slli	ra,ra,0x10
  62:	0001                	nop
  64:	0006                	c.slli	zero,0x1
  66:	0000                	unimp
  68:	002e                	c.slli	zero,0xb
  6a:	0000                	unimp
  6c:	0001                	nop
  6e:	3260                	.insn	2, 0x3260
  70:	0000                	unimp
  72:	5400                	lw	s0,40(s0)
  74:	0000                	unimp
  76:	0100                	addi	s0,sp,128
  78:	6000                	.insn	2, 0x6000
	...
  82:	ffff                	.insn	2, 0xffff
  84:	ffff                	.insn	2, 0xffff
  86:	00c2                	slli	ra,ra,0x10
  88:	0001                	nop
  8a:	0008                	.insn	2, 0x0008
  8c:	0000                	unimp
  8e:	0010                	.insn	2, 0x0010
  90:	0000                	unimp
  92:	0001                	nop
  94:	005c                	addi	a5,sp,4
  96:	0000                	unimp
  98:	0000                	unimp
  9a:	0000                	unimp
  9c:	ff00                	.insn	2, 0xff00
  9e:	ffff                	.insn	2, 0xffff
  a0:	c2ff 0100 0a00 0000 	.insn	18, 0x00325d00010000002e0000000a000100c2ff
  a8:	2e00 0000 0100 5d00 
  b0:	0032 
  b2:	0000                	unimp
  b4:	0054                	addi	a3,sp,4
  b6:	0000                	unimp
  b8:	0001                	nop
  ba:	005d                	c.nop	23
  bc:	0000                	unimp
  be:	0000                	unimp
  c0:	0000                	unimp
  c2:	ff00                	.insn	2, 0xff00
  c4:	ffff                	.insn	2, 0xffff
  c6:	c2ff 0100 0a00 0000 	.insn	18, 0x00326000010000002e0000000a000100c2ff
  ce:	2e00 0000 0100 6000 
  d6:	0032 
  d8:	0000                	unimp
  da:	0054                	addi	a3,sp,4
  dc:	0000                	unimp
  de:	0001                	nop
  e0:	0060                	addi	s0,sp,12
  e2:	0000                	unimp
  e4:	0000                	unimp
  e6:	0000                	unimp
  e8:	ff00                	.insn	2, 0xff00
  ea:	ffff                	.insn	2, 0xffff
  ec:	c2ff 0100 0a00 0000 	.insn	18, 0x002a5c00010000001e0000000a000100c2ff
  f4:	1e00 0000 0100 5c00 
  fc:	002a 
  fe:	0000                	unimp
 100:	002e                	c.slli	zero,0xb
 102:	0000                	unimp
 104:	0001                	nop
 106:	325c                	.insn	2, 0x325c
 108:	0000                	unimp
 10a:	3c00                	.insn	2, 0x3c00
 10c:	0000                	unimp
 10e:	0100                	addi	s0,sp,128
 110:	5c00                	lw	s0,56(s0)
 112:	0040                	addi	s0,sp,4
 114:	0000                	unimp
 116:	0042                	c.slli	zero,0x10
 118:	0000                	unimp
 11a:	0001                	nop
 11c:	425f 0000 5400      	.insn	6, 0x54000000425f
 122:	0000                	unimp
 124:	0100                	addi	s0,sp,128
 126:	5c00                	lw	s0,56(s0)
	...
 130:	ffff                	.insn	2, 0xffff
 132:	ffff                	.insn	2, 0xffff
 134:	00c2                	slli	ra,ra,0x10
 136:	0001                	nop
 138:	0032                	c.slli	zero,0xc
 13a:	0000                	unimp
 13c:	0040                	addi	s0,sp,4
 13e:	0000                	unimp
 140:	0001                	nop
 142:	4a5f 0000 5400      	.insn	6, 0x540000004a5f
 148:	0000                	unimp
 14a:	0100                	addi	s0,sp,128
 14c:	5f00                	lw	s0,56(a4)
	...
 156:	ffff                	.insn	2, 0xffff
 158:	ffff                	.insn	2, 0xffff
 15a:	0116                	slli	sp,sp,0x5
 15c:	0001                	nop
 15e:	0000                	unimp
 160:	0000                	unimp
 162:	000c                	.insn	2, 0x000c
 164:	0000                	unimp
 166:	0001                	nop
 168:	0e5a                	slli	t3,t3,0x16
 16a:	0000                	unimp
 16c:	1400                	addi	s0,sp,544
 16e:	0000                	unimp
 170:	0100                	addi	s0,sp,128
 172:	5a00                	lw	s0,48(a2)
 174:	001a                	c.slli	zero,0x6
 176:	0000                	unimp
 178:	001c                	.insn	2, 0x001c
 17a:	0000                	unimp
 17c:	0001                	nop
 17e:	005a                	c.slli	zero,0x16
 180:	0000                	unimp
 182:	0000                	unimp
 184:	0000                	unimp
 186:	ff00                	.insn	2, 0xff00
 188:	ffff                	.insn	2, 0xffff
 18a:	010116ff 00001400 	.insn	12, 0x160000001400010116ff
 192:	00001600 
 196:	0100                	addi	s0,sp,128
 198:	5a00                	lw	s0,48(a2)
	...
 1a2:	ffff                	.insn	2, 0xffff
 1a4:	ffff                	.insn	2, 0xffff
 1a6:	0134                	addi	a3,sp,136
 1a8:	0001                	nop
 1aa:	0000                	unimp
 1ac:	0000                	unimp
 1ae:	0010                	.insn	2, 0x0010
 1b0:	0000                	unimp
 1b2:	0001                	nop
 1b4:	105a                	c.slli	zero,0x36
 1b6:	0000                	unimp
 1b8:	6400                	.insn	2, 0x6400
 1ba:	0000                	unimp
 1bc:	0100                	addi	s0,sp,128
 1be:	5800                	lw	s0,48(s0)
	...
 1c8:	ffff                	.insn	2, 0xffff
 1ca:	ffff                	.insn	2, 0xffff
 1cc:	0134                	addi	a3,sp,136
 1ce:	0001                	nop
 1d0:	0000                	unimp
 1d2:	0000                	unimp
 1d4:	001c                	.insn	2, 0x001c
 1d6:	0000                	unimp
 1d8:	0001                	nop
 1da:	00001c5b          	.insn	4, 0x1c5b
 1de:	6800                	.insn	2, 0x6800
 1e0:	0000                	unimp
 1e2:	0100                	addi	s0,sp,128
 1e4:	6200                	.insn	2, 0x6200
	...
 1ee:	ffff                	.insn	2, 0xffff
 1f0:	ffff                	.insn	2, 0xffff
 1f2:	0134                	addi	a3,sp,136
 1f4:	0001                	nop
 1f6:	0016                	c.slli	zero,0x5
 1f8:	0000                	unimp
 1fa:	002e                	c.slli	zero,0xb
 1fc:	0000                	unimp
 1fe:	0001                	nop
 200:	0059                	c.nop	22
 202:	0000                	unimp
 204:	0000                	unimp
 206:	0000                	unimp
 208:	ff00                	.insn	2, 0xff00
 20a:	ffff                	.insn	2, 0xffff
 20c:	010134ff 00001a00 	.insn	16, 0x6400010000004a0000001a00010134ff
 214:	00004a00 64000100 
	...
 224:	ffff                	.insn	2, 0xffff
 226:	ffff                	.insn	2, 0xffff
 228:	0134                	addi	a3,sp,136
 22a:	0001                	nop
 22c:	0036                	c.slli	zero,0xd
 22e:	0000                	unimp
 230:	0044                	addi	s1,sp,4
 232:	0000                	unimp
 234:	0001                	nop
 236:	0000005b          	.insn	4, 0x005b
 23a:	0000                	unimp
 23c:	0000                	unimp
 23e:	ff00                	.insn	2, 0xff00
 240:	ffff                	.insn	2, 0xffff
 242:	010134ff 00004400 	.insn	16, 0x5a0006000000700000004400010134ff
 24a:	00007000 5a000600 
 252:	935b0493          	addi	s1,s6,-1739
 256:	0004                	.insn	2, 0x0004
 258:	0000                	unimp
 25a:	0000                	unimp
 25c:	0000                	unimp
 25e:	ff00                	.insn	2, 0xff00
 260:	ffff                	.insn	2, 0xffff
 262:	acff 0101 0000 0000 	.insn	14, 0x010000008200000000000101acff
 26a:	8200 0000 0100 
 270:	5a00                	lw	s0,48(a2)
	...
 27a:	ffff                	.insn	2, 0xffff
 27c:	ffff                	.insn	2, 0xffff
 27e:	01ac                	addi	a1,sp,200
 280:	0001                	nop
 282:	000c                	.insn	2, 0x000c
 284:	0000                	unimp
 286:	0026                	c.slli	zero,0x9
 288:	0000                	unimp
 28a:	0001                	nop
 28c:	006e                	c.slli	zero,0x1b
 28e:	0000                	unimp
 290:	0000                	unimp
 292:	0000                	unimp
 294:	ff00                	.insn	2, 0xff00
 296:	ffff                	.insn	2, 0xffff
 298:	acff 0101 2200 0000 	.insn	14, 0x010000006000000022000101acff
 2a0:	6000 0000 0100 
 2a6:	5c00                	lw	s0,56(s0)
 2a8:	006c                	addi	a1,sp,12
 2aa:	0000                	unimp
 2ac:	008a                	slli	ra,ra,0x2
 2ae:	0000                	unimp
 2b0:	0001                	nop
 2b2:	005c                	addi	a5,sp,4
 2b4:	0000                	unimp
 2b6:	0000                	unimp
 2b8:	0000                	unimp
 2ba:	ff00                	.insn	2, 0xff00
 2bc:	ffff                	.insn	2, 0xffff
 2be:	acff 0101 1000 0000 	.insn	14, 0x010000005a00000010000101acff
 2c6:	5a00 0000 0100 
 2cc:	6e00                	.insn	2, 0x6e00
 2ce:	005e                	c.slli	zero,0x17
 2d0:	0000                	unimp
 2d2:	008a                	slli	ra,ra,0x2
 2d4:	0000                	unimp
 2d6:	0001                	nop
 2d8:	006e                	c.slli	zero,0x1b
 2da:	0000                	unimp
 2dc:	0000                	unimp
 2de:	0000                	unimp
 2e0:	ff00                	.insn	2, 0xff00
 2e2:	ffff                	.insn	2, 0xffff
 2e4:	acff 0101 2c00 0000 	.insn	14, 0x01000000460000002c000101acff
 2ec:	4600 0000 0100 
 2f2:	5d00                	lw	s0,56(a0)
 2f4:	0078                	addi	a4,sp,12
 2f6:	0000                	unimp
 2f8:	0080                	addi	s0,sp,64
 2fa:	0000                	unimp
 2fc:	0001                	nop
 2fe:	005d                	c.nop	23
 300:	0000                	unimp
 302:	0000                	unimp
 304:	0000                	unimp
 306:	ff00                	.insn	2, 0xff00
 308:	ffff                	.insn	2, 0xffff
 30a:	acff 0101 2e00 0000 	.insn	14, 0x01000000340000002e000101acff
 312:	3400 0000 0100 
 318:	5e00                	lw	s0,56(a2)
	...
 322:	ffff                	.insn	2, 0xffff
 324:	ffff                	.insn	2, 0xffff
 326:	01ac                	addi	a1,sp,200
 328:	0001                	nop
 32a:	0034                	addi	a3,sp,8
 32c:	0000                	unimp
 32e:	0038                	addi	a4,sp,8
 330:	0000                	unimp
 332:	02110003          	lb	zero,33(sp) # 36363021 <__global_pointer$+0x36350f95>
 336:	009f 0000 0000      	.insn	6, 0x009f
 33c:	0000                	unimp
 33e:	ff00                	.insn	2, 0xff00
 340:	ffff                	.insn	2, 0xffff
 342:	010236ff 00000000 	.insn	16, 0x5a00010000000c0000000000010236ff
 34a:	00000c00 5a000100 
 352:	000c                	.insn	2, 0x000c
 354:	0000                	unimp
 356:	003e                	c.slli	zero,0xf
 358:	0000                	unimp
 35a:	0001                	nop
 35c:	0058                	addi	a4,sp,4
 35e:	0000                	unimp
 360:	0000                	unimp
 362:	0000                	unimp
 364:	ff00                	.insn	2, 0xff00
 366:	ffff                	.insn	2, 0xffff
 368:	010236ff 00003000 	.insn	16, 0x5b00010000003a0000003000010236ff
 370:	00003a00 5b000100 
	...
 380:	ffff                	.insn	2, 0xffff
 382:	ffff                	.insn	2, 0xffff
 384:	027c                	addi	a5,sp,268
 386:	0001                	nop
 388:	0000                	unimp
 38a:	0000                	unimp
 38c:	000e                	c.slli	zero,0x3
 38e:	0000                	unimp
 390:	0001                	nop
 392:	0e5a                	slli	t3,t3,0x16
 394:	0000                	unimp
 396:	4400                	lw	s0,8(s0)
 398:	0000                	unimp
 39a:	0100                	addi	s0,sp,128
 39c:	5800                	lw	s0,48(s0)
	...
 3a6:	ffff                	.insn	2, 0xffff
 3a8:	ffff                	.insn	2, 0xffff
 3aa:	027c                	addi	a5,sp,268
 3ac:	0001                	nop
 3ae:	0000                	unimp
 3b0:	0000                	unimp
 3b2:	0016                	c.slli	zero,0x5
 3b4:	0000                	unimp
 3b6:	0001                	nop
 3b8:	0000165b          	.insn	4, 0x165b
 3bc:	4800                	lw	s0,16(s0)
 3be:	0000                	unimp
 3c0:	0100                	addi	s0,sp,128
 3c2:	6200                	.insn	2, 0x6200
	...
 3cc:	ffff                	.insn	2, 0xffff
 3ce:	ffff                	.insn	2, 0xffff
 3d0:	027c                	addi	a5,sp,268
 3d2:	0001                	nop
 3d4:	0014                	.insn	2, 0x0014
 3d6:	0000                	unimp
 3d8:	0028                	addi	a0,sp,8
 3da:	0000                	unimp
 3dc:	0001                	nop
 3de:	0059                	c.nop	22
 3e0:	0000                	unimp
 3e2:	0000                	unimp
 3e4:	0000                	unimp
 3e6:	ff00                	.insn	2, 0xff00
 3e8:	ffff                	.insn	2, 0xffff
 3ea:	caff 0102 0000 0000 	.insn	18, 0x5a00010000000600000000000102caff
 3f2:	0600 0000 0100 5a00 
 3fa:	0000 
 3fc:	0000                	unimp
 3fe:	0000                	unimp
 400:	0000                	unimp
 402:	ffff                	.insn	2, 0xffff
 404:	ffff                	.insn	2, 0xffff
 406:	02ca                	slli	t0,t0,0x12
 408:	0001                	nop
 40a:	0002                	c.slli64	zero
 40c:	0000                	unimp
 40e:	0008                	.insn	2, 0x0008
 410:	0000                	unimp
 412:	0001                	nop
 414:	0000005b          	.insn	4, 0x005b
 418:	0000                	unimp
 41a:	0000                	unimp
 41c:	ff00                	.insn	2, 0xff00
 41e:	ffff                	.insn	2, 0xffff
 420:	caff 0102 0400 0000 	.insn	18, 0x5c00010000000a00000004000102caff
 428:	0a00 0000 0100 5c00 
 430:	0000 
 432:	0000                	unimp
 434:	0000                	unimp
 436:	0000                	unimp
 438:	ffff                	.insn	2, 0xffff
 43a:	ffff                	.insn	2, 0xffff
 43c:	02ca                	slli	t0,t0,0x12
 43e:	0001                	nop
 440:	0006                	c.slli	zero,0x1
 442:	0000                	unimp
 444:	0014                	.insn	2, 0x0014
 446:	0000                	unimp
 448:	0001                	nop
 44a:	005a                	c.slli	zero,0x16
 44c:	0000                	unimp
 44e:	0000                	unimp
 450:	0000                	unimp
 452:	ff00                	.insn	2, 0xff00
 454:	ffff                	.insn	2, 0xffff
 456:	e4ff 0102 0000 0000 	.insn	22, 0x5a00010000001000000000000102e4ff
 45e:	1000 0000 0100 5a00 
 466:	0000 0000 0000 
 46c:	0000                	unimp
 46e:	ffff                	.insn	2, 0xffff
 470:	ffff                	.insn	2, 0xffff
 472:	030a                	slli	t1,t1,0x2
 474:	0001                	nop
 476:	0000                	unimp
 478:	0000                	unimp
 47a:	0008                	.insn	2, 0x0008
 47c:	0000                	unimp
 47e:	935b0007          	.insn	4, 0x935b0007
 482:	3504                	.insn	2, 0x3504
 484:	939f 0804 0000      	.insn	6, 0x0804939f
 48a:	0e00                	addi	s0,sp,784
 48c:	0000                	unimp
 48e:	0600                	addi	s0,sp,768
 490:	9300                	.insn	2, 0x9300
 492:	3504                	.insn	2, 0x3504
 494:	939f 0004 0000      	.insn	6, 0x0004939f
 49a:	0000                	unimp
 49c:	0000                	unimp
 49e:	ff00                	.insn	2, 0xff00
 4a0:	ffff                	.insn	2, 0xffff
 4a2:	010318ff 00000000 	.insn	12, 0x0a0000000000010318ff
 4aa:	00000a00 
 4ae:	0100                	addi	s0,sp,128
 4b0:	5b00                	lw	s0,48(a4)
 4b2:	0016                	c.slli	zero,0x5
 4b4:	0000                	unimp
 4b6:	001e                	c.slli	zero,0x7
 4b8:	0000                	unimp
 4ba:	0001                	nop
 4bc:	0000385b          	.insn	4, 0x385b
 4c0:	3c00                	.insn	2, 0x3c00
 4c2:	0000                	unimp
 4c4:	0100                	addi	s0,sp,128
 4c6:	5b00                	lw	s0,48(a4)
	...
 4d0:	ffff                	.insn	2, 0xffff
 4d2:	ffff                	.insn	2, 0xffff
 4d4:	0318                	addi	a4,sp,384
 4d6:	0001                	nop
 4d8:	0002                	c.slli64	zero
 4da:	0000                	unimp
 4dc:	000e                	c.slli	zero,0x3
 4de:	0000                	unimp
 4e0:	0001                	nop
 4e2:	165d                	addi	a2,a2,-9 # 18ff7 <__global_pointer$+0x6f6b>
 4e4:	0000                	unimp
 4e6:	2800                	.insn	2, 0x2800
 4e8:	0000                	unimp
 4ea:	0100                	addi	s0,sp,128
 4ec:	5d00                	lw	s0,56(a0)
 4ee:	0038                	addi	a4,sp,8
 4f0:	0000                	unimp
 4f2:	003c                	addi	a5,sp,8
 4f4:	0000                	unimp
 4f6:	0001                	nop
 4f8:	005d                	c.nop	23
 4fa:	0000                	unimp
 4fc:	0000                	unimp
 4fe:	0000                	unimp
 500:	ff00                	.insn	2, 0xff00
 502:	ffff                	.insn	2, 0xffff
 504:	010318ff 00000400 	.insn	12, 0x0c0000000400010318ff
 50c:	00000c00 
 510:	0100                	addi	s0,sp,128
 512:	5c00                	lw	s0,56(s0)
 514:	0016                	c.slli	zero,0x5
 516:	0000                	unimp
 518:	003c                	addi	a5,sp,8
 51a:	0000                	unimp
 51c:	0001                	nop
 51e:	005c                	addi	a5,sp,4
 520:	0000                	unimp
 522:	0000                	unimp
 524:	0000                	unimp
 526:	ff00                	.insn	2, 0xff00
 528:	ffff                	.insn	2, 0xffff
 52a:	010318ff 00001c00 	.insn	12, 0x240000001c00010318ff
 532:	00002400 
 536:	0100                	addi	s0,sp,128
 538:	5e00                	lw	s0,56(a2)
	...
 542:	ffff                	.insn	2, 0xffff
 544:	ffff                	.insn	2, 0xffff
 546:	0318                	addi	a4,sp,384
 548:	0001                	nop
 54a:	000a                	c.slli	zero,0x2
 54c:	0000                	unimp
 54e:	0010                	.insn	2, 0x0010
 550:	0000                	unimp
 552:	935b0003          	lb	zero,-1739(s6)
 556:	0004                	.insn	2, 0x0004
 558:	0000                	unimp
 55a:	0000                	unimp
 55c:	0000                	unimp
 55e:	ff00                	.insn	2, 0xff00
 560:	ffff                	.insn	2, 0xffff
 562:	010318ff 00000a00 	.insn	12, 0x100000000a00010318ff
 56a:	00001000 
 56e:	0300                	addi	s0,sp,384
 570:	5b00                	lw	s0,48(a4)
 572:	00000493          	li	s1,0
 576:	0000                	unimp
 578:	0000                	unimp
 57a:	0000                	unimp
 57c:	ffff                	.insn	2, 0xffff
 57e:	ffff                	.insn	2, 0xffff
 580:	0318                	addi	a4,sp,384
 582:	0001                	nop
 584:	000a                	c.slli	zero,0x2
 586:	0000                	unimp
 588:	000c                	.insn	2, 0x000c
 58a:	0000                	unimp
 58c:	0006                	c.slli	zero,0x1
 58e:	935d                	srli	a4,a4,0x37
 590:	5c04                	lw	s1,56(s0)
 592:	000c0493          	mv	s1,s8
 596:	0000                	unimp
 598:	000e                	c.slli	zero,0x3
 59a:	0000                	unimp
 59c:	935d0003          	lb	zero,-1739(s10) # 18935 <__global_pointer$+0x68a9>
 5a0:	0004                	.insn	2, 0x0004
 5a2:	0000                	unimp
 5a4:	0000                	unimp
 5a6:	0000                	unimp
 5a8:	ff00                	.insn	2, 0xff00
 5aa:	ffff                	.insn	2, 0xffff
 5ac:	010318ff 00000a00 	.insn	12, 0x0c0000000a00010318ff
 5b4:	00000c00 
 5b8:	0600                	addi	s0,sp,768
 5ba:	5d00                	lw	s0,56(a0)
 5bc:	935c0493          	addi	s1,s8,-1739 # 17935 <__global_pointer$+0x58a9>
 5c0:	0c04                	addi	s1,sp,528
 5c2:	0000                	unimp
 5c4:	0e00                	addi	s0,sp,784
 5c6:	0000                	unimp
 5c8:	0300                	addi	s0,sp,384
 5ca:	5d00                	lw	s0,56(a0)
 5cc:	00000493          	li	s1,0
 5d0:	0000                	unimp
 5d2:	0000                	unimp
 5d4:	0000                	unimp
 5d6:	ffff                	.insn	2, 0xffff
 5d8:	ffff                	.insn	2, 0xffff
 5da:	0318                	addi	a4,sp,384
 5dc:	0001                	nop
 5de:	000c                	.insn	2, 0x000c
 5e0:	0000                	unimp
 5e2:	0010                	.insn	2, 0x0010
 5e4:	0000                	unimp
 5e6:	935b0003          	lb	zero,-1739(s6)
 5ea:	0004                	.insn	2, 0x0004
 5ec:	0000                	unimp
 5ee:	0000                	unimp
 5f0:	0000                	unimp
 5f2:	ff00                	.insn	2, 0xff00
 5f4:	ffff                	.insn	2, 0xffff
 5f6:	010318ff 00000c00 	.insn	12, 0x0e0000000c00010318ff
 5fe:	00000e00 
 602:	0100                	addi	s0,sp,128
 604:	5d00                	lw	s0,56(a0)
	...
 60e:	ffff                	.insn	2, 0xffff
 610:	ffff                	.insn	2, 0xffff
 612:	0318                	addi	a4,sp,384
 614:	0001                	nop
 616:	001e                	c.slli	zero,0x7
 618:	0000                	unimp
 61a:	0024                	addi	s1,sp,8
 61c:	0000                	unimp
 61e:	0006                	c.slli	zero,0x1
 620:	5e04935b          	.insn	4, 0x5e04935b
 624:	00240493          	addi	s1,s0,2 # 66366002 <__global_pointer$+0x66353f76>
 628:	0000                	unimp
 62a:	002e                	c.slli	zero,0xb
 62c:	0000                	unimp
 62e:	935b0003          	lb	zero,-1739(s6)
 632:	0004                	.insn	2, 0x0004
 634:	0000                	unimp
 636:	0000                	unimp
 638:	0000                	unimp
 63a:	ff00                	.insn	2, 0xff00
 63c:	ffff                	.insn	2, 0xffff
 63e:	010318ff 00001e00 	.insn	12, 0x240000001e00010318ff
 646:	00002400 
 64a:	0600                	addi	s0,sp,768
 64c:	5b00                	lw	s0,48(a4)
 64e:	935e0493          	addi	s1,t3,-1739 # 17935 <__global_pointer$+0x58a9>
 652:	2404                	.insn	2, 0x2404
 654:	0000                	unimp
 656:	2e00                	.insn	2, 0x2e00
 658:	0000                	unimp
 65a:	0300                	addi	s0,sp,384
 65c:	5b00                	lw	s0,48(a4)
 65e:	00000493          	li	s1,0
 662:	0000                	unimp
 664:	0000                	unimp
 666:	0000                	unimp
 668:	ffff                	.insn	2, 0xffff
 66a:	ffff                	.insn	2, 0xffff
 66c:	0318                	addi	a4,sp,384
 66e:	0001                	nop
 670:	001e                	c.slli	zero,0x7
 672:	0000                	unimp
 674:	0024                	addi	s1,sp,8
 676:	0000                	unimp
 678:	0006                	c.slli	zero,0x1
 67a:	5e04935b          	.insn	4, 0x5e04935b
 67e:	00240493          	addi	s1,s0,2
 682:	0000                	unimp
 684:	002e                	c.slli	zero,0xb
 686:	0000                	unimp
 688:	935b0003          	lb	zero,-1739(s6)
 68c:	0004                	.insn	2, 0x0004
 68e:	0000                	unimp
 690:	0000                	unimp
 692:	0000                	unimp
 694:	ff00                	.insn	2, 0xff00
 696:	ffff                	.insn	2, 0xffff
 698:	010318ff 00001e00 	.insn	12, 0x280000001e00010318ff
 6a0:	00002800 
 6a4:	0100                	addi	s0,sp,128
 6a6:	5d00                	lw	s0,56(a0)
	...
 6b0:	ffff                	.insn	2, 0xffff
 6b2:	ffff                	.insn	2, 0xffff
 6b4:	0318                	addi	a4,sp,384
 6b6:	0001                	nop
 6b8:	001e                	c.slli	zero,0x7
 6ba:	0000                	unimp
 6bc:	0028                	addi	a0,sp,8
 6be:	0000                	unimp
 6c0:	0001                	nop
 6c2:	005d                	c.nop	23
 6c4:	0000                	unimp
 6c6:	0000                	unimp
 6c8:	0000                	unimp
 6ca:	ff00                	.insn	2, 0xff00
 6cc:	ffff                	.insn	2, 0xffff
 6ce:	010318ff 00001e00 	.insn	12, 0x280000001e00010318ff
 6d6:	00002800 
 6da:	0100                	addi	s0,sp,128
 6dc:	5d00                	lw	s0,56(a0)
	...
 6e6:	ffff                	.insn	2, 0xffff
 6e8:	ffff                	.insn	2, 0xffff
 6ea:	0318                	addi	a4,sp,384
 6ec:	0001                	nop
 6ee:	001e                	c.slli	zero,0x7
 6f0:	0000                	unimp
 6f2:	0024                	addi	s1,sp,8
 6f4:	0000                	unimp
 6f6:	0001                	nop
 6f8:	005e                	c.slli	zero,0x17
 6fa:	0000                	unimp
 6fc:	0000                	unimp
 6fe:	0000                	unimp
 700:	ff00                	.insn	2, 0xff00
 702:	ffff                	.insn	2, 0xffff
 704:	010318ff 00001e00 	.insn	12, 0x280000001e00010318ff
 70c:	00002800 
 710:	0100                	addi	s0,sp,128
 712:	5d00                	lw	s0,56(a0)
	...
 71c:	ffff                	.insn	2, 0xffff
 71e:	ffff                	.insn	2, 0xffff
 720:	0318                	addi	a4,sp,384
 722:	0001                	nop
 724:	0024                	addi	s1,sp,8
 726:	0000                	unimp
 728:	002c                	addi	a1,sp,8
 72a:	0000                	unimp
 72c:	0005                	c.nop	1
 72e:	935e0493          	addi	s1,t3,-1739
 732:	2c04                	.insn	2, 0x2c04
 734:	0000                	unimp
 736:	3800                	.insn	2, 0x3800
 738:	0000                	unimp
 73a:	0600                	addi	s0,sp,768
 73c:	5f00                	lw	s0,56(a4)
 73e:	935e0493          	addi	s1,t3,-1739
 742:	0004                	.insn	2, 0x0004
 744:	0000                	unimp
 746:	0000                	unimp
 748:	0000                	unimp
 74a:	ff00                	.insn	2, 0xff00
 74c:	ffff                	.insn	2, 0xffff
 74e:	010318ff 00002400 	.insn	12, 0x2e0000002400010318ff
 756:	00002e00 
 75a:	0300                	addi	s0,sp,384
 75c:	5b00                	lw	s0,48(a4)
 75e:	00000493          	li	s1,0
 762:	0000                	unimp
 764:	0000                	unimp
 766:	0000                	unimp
 768:	ffff                	.insn	2, 0xffff
 76a:	ffff                	.insn	2, 0xffff
 76c:	03f0                	addi	a2,sp,460
 76e:	0001                	nop
 770:	0000                	unimp
 772:	0000                	unimp
 774:	000c                	.insn	2, 0x000c
 776:	0000                	unimp
 778:	0001                	nop
 77a:	005a                	c.slli	zero,0x16
 77c:	0000                	unimp
 77e:	0000                	unimp
 780:	0000                	unimp
 782:	ff00                	.insn	2, 0xff00
 784:	ffff                	.insn	2, 0xffff
 786:	f0ff                	.insn	2, 0xf0ff
 788:	00000103          	lb	sp,0(zero) # 0 <core::panicking::panic_bounds_check-0x10094>
 78c:	0000                	unimp
 78e:	0c00                	addi	s0,sp,528
 790:	0000                	unimp
 792:	0100                	addi	s0,sp,128
 794:	5a00                	lw	s0,48(a2)
	...
 79e:	ffff                	.insn	2, 0xffff
 7a0:	ffff                	.insn	2, 0xffff
 7a2:	03f0                	addi	a2,sp,460
 7a4:	0001                	nop
 7a6:	000c                	.insn	2, 0x000c
 7a8:	0000                	unimp
 7aa:	0010                	.insn	2, 0x0010
 7ac:	0000                	unimp
 7ae:	0001                	nop
 7b0:	005a                	c.slli	zero,0x16
 7b2:	0000                	unimp
 7b4:	0000                	unimp
 7b6:	0000                	unimp
 7b8:	ff00                	.insn	2, 0xff00
 7ba:	ffff                	.insn	2, 0xffff
 7bc:	08ff 0104 0000 0000 	.insn	10, 0x080000000000010408ff
 7c4:	0800 
 7c6:	0000                	unimp
 7c8:	0100                	addi	s0,sp,128
 7ca:	5a00                	lw	s0,48(a2)
 7cc:	0008                	.insn	2, 0x0008
 7ce:	0000                	unimp
 7d0:	0014                	.insn	2, 0x0014
 7d2:	0000                	unimp
 7d4:	0001                	nop
 7d6:	0000005b          	.insn	4, 0x005b
 7da:	0000                	unimp
 7dc:	0000                	unimp
 7de:	ff00                	.insn	2, 0xff00
 7e0:	ffff                	.insn	2, 0xffff
 7e2:	08ff 0104 0800 0000 	.insn	10, 0x140000000800010408ff
 7ea:	1400 
 7ec:	0000                	unimp
 7ee:	0100                	addi	s0,sp,128
 7f0:	5b00                	lw	s0,48(a4)
	...
 7fa:	ffff                	.insn	2, 0xffff
 7fc:	ffff                	.insn	2, 0xffff
 7fe:	0424                	addi	s1,sp,520
 800:	0001                	nop
 802:	0000                	unimp
 804:	0000                	unimp
 806:	000c                	.insn	2, 0x000c
 808:	0000                	unimp
 80a:	0001                	nop
 80c:	005a                	c.slli	zero,0x16
 80e:	0000                	unimp
 810:	0000                	unimp
 812:	0000                	unimp
 814:	ff00                	.insn	2, 0xff00
 816:	ffff                	.insn	2, 0xffff
 818:	24ff 0104 0000 0000 	.insn	14, 0x010000000c0000000000010424ff
 820:	0c00 0000 0100 
 826:	5a00                	lw	s0,48(a2)
	...
 830:	ffff                	.insn	2, 0xffff
 832:	ffff                	.insn	2, 0xffff
 834:	0424                	addi	s1,sp,520
 836:	0001                	nop
 838:	000c                	.insn	2, 0x000c
 83a:	0000                	unimp
 83c:	0014                	.insn	2, 0x0014
 83e:	0000                	unimp
 840:	0006                	c.slli	zero,0x1
 842:	007a                	c.slli	zero,0x1e
 844:	0110                	addi	a2,sp,128
 846:	9f1a                	add	t5,t5,t1
	...
 850:	ffff                	.insn	2, 0xffff
 852:	ffff                	.insn	2, 0xffff
 854:	0440                	addi	s0,sp,516
 856:	0001                	nop
 858:	0000                	unimp
 85a:	0000                	unimp
 85c:	000c                	.insn	2, 0x000c
 85e:	0000                	unimp
 860:	0001                	nop
 862:	005a                	c.slli	zero,0x16
 864:	0000                	unimp
 866:	0000                	unimp
 868:	0000                	unimp
 86a:	ff00                	.insn	2, 0xff00
 86c:	ffff                	.insn	2, 0xffff
 86e:	40ff 0104 0000 0000 	.insn	18, 0x5a00010000000c0000000000010440ff
 876:	0c00 0000 0100 5a00 
 87e:	0000 
 880:	0000                	unimp
 882:	0000                	unimp
 884:	0000                	unimp
 886:	ffff                	.insn	2, 0xffff
 888:	ffff                	.insn	2, 0xffff
 88a:	0440                	addi	s0,sp,516
 88c:	0001                	nop
 88e:	000c                	.insn	2, 0x000c
 890:	0000                	unimp
 892:	0014                	.insn	2, 0x0014
 894:	0000                	unimp
 896:	0006                	c.slli	zero,0x1
 898:	007a                	c.slli	zero,0x1e
 89a:	0110                	addi	a2,sp,128
 89c:	9f1a                	add	t5,t5,t1
	...
 8a6:	ffff                	.insn	2, 0xffff
 8a8:	ffff                	.insn	2, 0xffff
 8aa:	045c                	addi	a5,sp,516
 8ac:	0001                	nop
 8ae:	0000                	unimp
 8b0:	0000                	unimp
 8b2:	000c                	.insn	2, 0x000c
 8b4:	0000                	unimp
 8b6:	0001                	nop
 8b8:	005a                	c.slli	zero,0x16
 8ba:	0000                	unimp
 8bc:	0000                	unimp
 8be:	0000                	unimp
 8c0:	ff00                	.insn	2, 0xff00
 8c2:	ffff                	.insn	2, 0xffff
 8c4:	01045cff 00000000 	.insn	20, 0x5a00010000000c000000000001045cff
 8cc:	00000c00 5a000100 
 8d4:	00000000 
 8d8:	0000                	unimp
 8da:	0000                	unimp
 8dc:	ffff                	.insn	2, 0xffff
 8de:	ffff                	.insn	2, 0xffff
 8e0:	045c                	addi	a5,sp,516
 8e2:	0001                	nop
 8e4:	000c                	.insn	2, 0x000c
 8e6:	0000                	unimp
 8e8:	0010                	.insn	2, 0x0010
 8ea:	0000                	unimp
 8ec:	0001                	nop
 8ee:	005a                	c.slli	zero,0x16
 8f0:	0000                	unimp
 8f2:	0000                	unimp
 8f4:	0000                	unimp
 8f6:	ff00                	.insn	2, 0xff00
 8f8:	ffff                	.insn	2, 0xffff
 8fa:	74ff                	.insn	2, 0x74ff
 8fc:	0104                	addi	s1,sp,128
 8fe:	0000                	unimp
 900:	0000                	unimp
 902:	1400                	addi	s0,sp,544
 904:	0000                	unimp
 906:	0100                	addi	s0,sp,128
 908:	5a00                	lw	s0,48(a2)
	...
 912:	ffff                	.insn	2, 0xffff
 914:	ffff                	.insn	2, 0xffff
 916:	0474                	addi	a3,sp,524
 918:	0001                	nop
 91a:	000c                	.insn	2, 0x000c
 91c:	0000                	unimp
 91e:	0024                	addi	s1,sp,8
 920:	0000                	unimp
 922:	0002                	c.slli64	zero
 924:	9f31                	.insn	2, 0x9f31
	...
 92e:	ffff                	.insn	2, 0xffff
 930:	ffff                	.insn	2, 0xffff
 932:	0474                	addi	a3,sp,524
 934:	0001                	nop
 936:	000c                	.insn	2, 0x000c
 938:	0000                	unimp
 93a:	0014                	.insn	2, 0x0014
 93c:	0000                	unimp
 93e:	0001                	nop
 940:	005a                	c.slli	zero,0x16
 942:	0000                	unimp
 944:	0000                	unimp
 946:	0000                	unimp
 948:	ff00                	.insn	2, 0xff00
 94a:	ffff                	.insn	2, 0xffff
 94c:	74ff                	.insn	2, 0x74ff
 94e:	0104                	addi	s1,sp,128
 950:	1400                	addi	s0,sp,544
 952:	0000                	unimp
 954:	1c00                	addi	s0,sp,560
 956:	0000                	unimp
 958:	0600                	addi	s0,sp,768
 95a:	7a00                	.insn	2, 0x7a00
 95c:	1000                	addi	s0,sp,32
 95e:	1a01                	addi	s4,s4,-32 # ffff9fe0 <__global_pointer$+0xfffe7f54>
 960:	009f 0000 0000      	.insn	6, 0x009f
 966:	0000                	unimp
 968:	ff00                	.insn	2, 0xff00
 96a:	ffff                	.insn	2, 0xffff
 96c:	010498ff 00000000 	.insn	12, 0x0c0000000000010498ff
 974:	00000c00 
 978:	0100                	addi	s0,sp,128
 97a:	5a00                	lw	s0,48(a2)
	...
 984:	ffff                	.insn	2, 0xffff
 986:	ffff                	.insn	2, 0xffff
 988:	0498                	addi	a4,sp,576
 98a:	0001                	nop
 98c:	0000                	unimp
 98e:	0000                	unimp
 990:	000c                	.insn	2, 0x000c
 992:	0000                	unimp
 994:	0001                	nop
 996:	005a                	c.slli	zero,0x16
 998:	0000                	unimp
 99a:	0000                	unimp
 99c:	0000                	unimp
 99e:	ff00                	.insn	2, 0xff00
 9a0:	ffff                	.insn	2, 0xffff
 9a2:	010498ff 00000c00 	.insn	12, 0x120000000c00010498ff
 9aa:	00001200 
 9ae:	0600                	addi	s0,sp,768
 9b0:	5a00                	lw	s0,48(a2)
 9b2:	935b0493          	addi	s1,s6,-1739
 9b6:	1204                	addi	s1,sp,288
 9b8:	0000                	unimp
 9ba:	1a00                	addi	s0,sp,304
 9bc:	0000                	unimp
 9be:	0500                	addi	s0,sp,640
 9c0:	9300                	.insn	2, 0x9300
 9c2:	5b04                	lw	s1,48(a4)
 9c4:	00000493          	li	s1,0
 9c8:	0000                	unimp
 9ca:	0000                	unimp
 9cc:	0000                	unimp
 9ce:	ffff                	.insn	2, 0xffff
 9d0:	ffff                	.insn	2, 0xffff
 9d2:	04b2                	slli	s1,s1,0xc
 9d4:	0001                	nop
 9d6:	0000                	unimp
 9d8:	0000                	unimp
 9da:	0014                	.insn	2, 0x0014
 9dc:	0000                	unimp
 9de:	0001                	nop
 9e0:	005a                	c.slli	zero,0x16
 9e2:	0000                	unimp
 9e4:	0000                	unimp
 9e6:	0000                	unimp
 9e8:	ff00                	.insn	2, 0xff00
 9ea:	ffff                	.insn	2, 0xffff
 9ec:	0104b2ff 00000c00 	.insn	16, 0x310002000000220000000c000104b2ff
 9f4:	00002200 31000200 
 9fc:	009f 0000 0000      	.insn	6, 0x009f
 a02:	0000                	unimp
 a04:	ff00                	.insn	2, 0xff00
 a06:	ffff                	.insn	2, 0xffff
 a08:	0104b2ff 00000c00 	.insn	16, 0x5a0001000000140000000c000104b2ff
 a10:	00001400 5a000100 
	...
 a20:	ffff                	.insn	2, 0xffff
 a22:	ffff                	.insn	2, 0xffff
 a24:	04b2                	slli	s1,s1,0xc
 a26:	0001                	nop
 a28:	0014                	.insn	2, 0x0014
 a2a:	0000                	unimp
 a2c:	001a                	c.slli	zero,0x6
 a2e:	0000                	unimp
 a30:	0006                	c.slli	zero,0x1
 a32:	935a                	add	t1,t1,s6
 a34:	5b04                	lw	s1,48(a4)
 a36:	001a0493          	addi	s1,s4,1
 a3a:	0000                	unimp
 a3c:	0022                	c.slli	zero,0x8
 a3e:	0000                	unimp
 a40:	0005                	c.nop	1
 a42:	935b0493          	addi	s1,s6,-1739
 a46:	0004                	.insn	2, 0x0004
 a48:	0000                	unimp
 a4a:	0000                	unimp
 a4c:	0000                	unimp
 a4e:	ff00                	.insn	2, 0xff00
 a50:	ffff                	.insn	2, 0xffff
 a52:	0104d4ff 00000000 	.insn	20, 0x000a5a00010000000a00000000000104d4ff
 a5a:	00000a00 5a000100 
 a62:	0000000a 
 a66:	002a                	c.slli	zero,0xa
 a68:	0000                	unimp
 a6a:	0001                	nop
 a6c:	0058                	addi	a4,sp,4
 a6e:	0000                	unimp
 a70:	0000                	unimp
 a72:	0000                	unimp
 a74:	ff00                	.insn	2, 0xff00
 a76:	ffff                	.insn	2, 0xffff
 a78:	0104d4ff 00002000 	.insn	20, 0x9f3304935a00070000002600000020000104d4ff
 a80:	00002600 5a000700 
 a88:	9f330493 
 a8c:	00260493          	addi	s1,a2,2
 a90:	0000                	unimp
 a92:	0030                	addi	a2,sp,8
 a94:	0000                	unimp
 a96:	0006                	c.slli	zero,0x1
 a98:	9f330493          	addi	s1,t1,-1549 # 199f3 <__global_pointer$+0x7967>
 a9c:	00000493          	li	s1,0
 aa0:	0000                	unimp
 aa2:	0000                	unimp
	...

Disassembly of section .debug_ranges:

00000000 <.debug_ranges>:
   0:	00c8                	addi	a0,sp,68
   2:	0001                	nop
   4:	00f0                	addi	a2,sp,76
   6:	0001                	nop
   8:	00f4                	addi	a3,sp,76
   a:	0001                	nop
   c:	0114                	addi	a3,sp,128
   e:	0001                	nop
	...
  18:	00ca                	slli	ra,ra,0x12
  1a:	0001                	nop
  1c:	00f0                	addi	a2,sp,76
  1e:	0001                	nop
  20:	00f4                	addi	a3,sp,76
  22:	0001                	nop
  24:	0114                	addi	a3,sp,128
  26:	0001                	nop
	...
  30:	00ce                	slli	ra,ra,0x13
  32:	0001                	nop
  34:	00f0                	addi	a2,sp,76
  36:	0001                	nop
  38:	00f4                	addi	a3,sp,76
  3a:	0001                	nop
  3c:	0114                	addi	a3,sp,128
  3e:	0001                	nop
	...
  48:	00f4                	addi	a3,sp,76
  4a:	0001                	nop
  4c:	0104                	addi	s1,sp,128
  4e:	0001                	nop
  50:	010c                	addi	a1,sp,128
  52:	0001                	nop
  54:	0114                	addi	a3,sp,128
  56:	0001                	nop
	...
  60:	0116                	slli	sp,sp,0x5
  62:	0001                	nop
  64:	0122                	slli	sp,sp,0x8
  66:	0001                	nop
  68:	0124                	addi	s1,sp,136
  6a:	0001                	nop
  6c:	012e                	slli	sp,sp,0xb
  6e:	0001                	nop
	...
  78:	0118                	addi	a4,sp,128
  7a:	0001                	nop
  7c:	0122                	slli	sp,sp,0x8
  7e:	0001                	nop
  80:	0124                	addi	s1,sp,136
  82:	0001                	nop
  84:	012e                	slli	sp,sp,0xb
  86:	0001                	nop
	...
  90:	011a                	slli	sp,sp,0x6
  92:	0001                	nop
  94:	0122                	slli	sp,sp,0x8
  96:	0001                	nop
  98:	0124                	addi	s1,sp,136
  9a:	0001                	nop
  9c:	012e                	slli	sp,sp,0xb
  9e:	0001                	nop
	...
  a8:	0158                	addi	a4,sp,132
  aa:	0001                	nop
  ac:	015a                	slli	sp,sp,0x16
  ae:	0001                	nop
  b0:	0178                	addi	a4,sp,140
  b2:	0001                	nop
  b4:	0194                	addi	a3,sp,192
  b6:	0001                	nop
	...
  c0:	015c                	addi	a5,sp,132
  c2:	0001                	nop
  c4:	0160                	addi	s0,sp,140
  c6:	0001                	nop
  c8:	0164                	addi	s1,sp,140
  ca:	0001                	nop
  cc:	0168                	addi	a0,sp,140
  ce:	0001                	nop
  d0:	016a                	slli	sp,sp,0x1a
  d2:	0001                	nop
  d4:	0178                	addi	a4,sp,140
  d6:	0001                	nop
	...
  e0:	01b4                	addi	a3,sp,200
  e2:	0001                	nop
  e4:	0220                	addi	s0,sp,264
  e6:	0001                	nop
  e8:	0224                	addi	s1,sp,264
  ea:	0001                	nop
  ec:	0236                	slli	tp,tp,0xd
  ee:	0001                	nop
	...
  f8:	01b8                	addi	a4,sp,200
  fa:	0001                	nop
  fc:	0220                	addi	s0,sp,264
  fe:	0001                	nop
 100:	0224                	addi	s1,sp,264
 102:	0001                	nop
 104:	0236                	slli	tp,tp,0xd
 106:	0001                	nop
	...
 110:	01ce                	slli	gp,gp,0x13
 112:	0001                	nop
 114:	0220                	addi	s0,sp,264
 116:	0001                	nop
 118:	0224                	addi	s1,sp,264
 11a:	0001                	nop
 11c:	0236                	slli	tp,tp,0xd
 11e:	0001                	nop
	...
 128:	01d8                	addi	a4,sp,196
 12a:	0001                	nop
 12c:	01f0                	addi	a2,sp,204
 12e:	0001                	nop
 130:	0224                	addi	s1,sp,264
 132:	0001                	nop
 134:	022c                	addi	a1,sp,264
 136:	0001                	nop
	...
 140:	01da                	slli	gp,gp,0x16
 142:	0001                	nop
 144:	01f0                	addi	a2,sp,204
 146:	0001                	nop
 148:	0224                	addi	s1,sp,264
 14a:	0001                	nop
 14c:	022c                	addi	a1,sp,264
 14e:	0001                	nop
	...
 158:	01da                	slli	gp,gp,0x16
 15a:	0001                	nop
 15c:	01dc                	addi	a5,sp,196
 15e:	0001                	nop
 160:	01de                	slli	gp,gp,0x17
 162:	0001                	nop
 164:	01e0                	addi	s0,sp,204
 166:	0001                	nop
	...
 170:	01dc                	addi	a5,sp,196
 172:	0001                	nop
 174:	01de                	slli	gp,gp,0x17
 176:	0001                	nop
 178:	01e0                	addi	s0,sp,204
 17a:	0001                	nop
 17c:	01e2                	slli	gp,gp,0x18
 17e:	0001                	nop
	...
 188:	0252                	slli	tp,tp,0x14
 18a:	0001                	nop
 18c:	0256                	slli	tp,tp,0x15
 18e:	0001                	nop
 190:	025a                	slli	tp,tp,0x16
 192:	0001                	nop
 194:	0262                	slli	tp,tp,0x18
 196:	0001                	nop
 198:	0266                	slli	tp,tp,0x19
 19a:	0001                	nop
 19c:	026e                	slli	tp,tp,0x1b
 19e:	0001                	nop
	...
 1a8:	02ca                	slli	t0,t0,0x12
 1aa:	0001                	nop
 1ac:	02cc                	addi	a1,sp,324
 1ae:	0001                	nop
 1b0:	02ce                	slli	t0,t0,0x13
 1b2:	0001                	nop
 1b4:	02e2                	slli	t0,t0,0x18
 1b6:	0001                	nop
	...
 1c0:	02ca                	slli	t0,t0,0x12
 1c2:	0001                	nop
 1c4:	02cc                	addi	a1,sp,324
 1c6:	0001                	nop
 1c8:	02d0                	addi	a2,sp,324
 1ca:	0001                	nop
 1cc:	02e2                	slli	t0,t0,0x18
 1ce:	0001                	nop
	...
 1d8:	0318                	addi	a4,sp,384
 1da:	0001                	nop
 1dc:	0332                	slli	t1,t1,0xc
 1de:	0001                	nop
 1e0:	0334                	addi	a3,sp,392
 1e2:	0001                	nop
 1e4:	034e                	slli	t1,t1,0x13
 1e6:	0001                	nop
 1e8:	0350                	addi	a2,sp,388
 1ea:	0001                	nop
 1ec:	0358                	addi	a4,sp,388
 1ee:	0001                	nop
	...
 1f8:	031a                	slli	t1,t1,0x6
 1fa:	0001                	nop
 1fc:	0332                	slli	t1,t1,0xc
 1fe:	0001                	nop
 200:	0334                	addi	a3,sp,392
 202:	0001                	nop
 204:	034e                	slli	t1,t1,0x13
 206:	0001                	nop
 208:	0350                	addi	a2,sp,388
 20a:	0001                	nop
 20c:	0358                	addi	a4,sp,388
 20e:	0001                	nop
	...
 218:	031c                	addi	a5,sp,384
 21a:	0001                	nop
 21c:	0332                	slli	t1,t1,0xc
 21e:	0001                	nop
 220:	0334                	addi	a3,sp,392
 222:	0001                	nop
 224:	034e                	slli	t1,t1,0x13
 226:	0001                	nop
 228:	0350                	addi	a2,sp,388
 22a:	0001                	nop
 22c:	0358                	addi	a4,sp,388
 22e:	0001                	nop
	...
 238:	0336                	slli	t1,t1,0xd
 23a:	0001                	nop
 23c:	033c                	addi	a5,sp,392
 23e:	0001                	nop
 240:	0342                	slli	t1,t1,0x10
 242:	0001                	nop
 244:	0344                	addi	s1,sp,388
 246:	0001                	nop
	...
 250:	0336                	slli	t1,t1,0xd
 252:	0001                	nop
 254:	033a                	slli	t1,t1,0xe
 256:	0001                	nop
 258:	0342                	slli	t1,t1,0x10
 25a:	0001                	nop
 25c:	0344                	addi	s1,sp,388
 25e:	0001                	nop
	...
 268:	033c                	addi	a5,sp,392
 26a:	0001                	nop
 26c:	0342                	slli	t1,t1,0x10
 26e:	0001                	nop
 270:	0344                	addi	s1,sp,388
 272:	0001                	nop
 274:	034e                	slli	t1,t1,0x13
 276:	0001                	nop
	...
 280:	00b6                	slli	ra,ra,0xd
 282:	0001                	nop
 284:	00c2                	slli	ra,ra,0x10
 286:	0001                	nop
 288:	00c2                	slli	ra,ra,0x10
 28a:	0001                	nop
 28c:	0116                	slli	sp,sp,0x5
 28e:	0001                	nop
 290:	0116                	slli	sp,sp,0x5
 292:	0001                	nop
 294:	0134                	addi	a3,sp,136
 296:	0001                	nop
 298:	0134                	addi	a3,sp,136
 29a:	0001                	nop
 29c:	01a4                	addi	s1,sp,200
 29e:	0001                	nop
 2a0:	01a4                	addi	s1,sp,200
 2a2:	0001                	nop
 2a4:	01ac                	addi	a1,sp,200
 2a6:	0001                	nop
 2a8:	01ac                	addi	a1,sp,200
 2aa:	0001                	nop
 2ac:	0236                	slli	tp,tp,0xd
 2ae:	0001                	nop
 2b0:	0236                	slli	tp,tp,0xd
 2b2:	0001                	nop
 2b4:	027c                	addi	a5,sp,268
 2b6:	0001                	nop
 2b8:	027c                	addi	a5,sp,268
 2ba:	0001                	nop
 2bc:	02ca                	slli	t0,t0,0x12
 2be:	0001                	nop
 2c0:	02ca                	slli	t0,t0,0x12
 2c2:	0001                	nop
 2c4:	02e4                	addi	s1,sp,332
 2c6:	0001                	nop
 2c8:	02e4                	addi	s1,sp,332
 2ca:	0001                	nop
 2cc:	030a                	slli	t1,t1,0x2
 2ce:	0001                	nop
 2d0:	030a                	slli	t1,t1,0x2
 2d2:	0001                	nop
 2d4:	0318                	addi	a4,sp,384
 2d6:	0001                	nop
 2d8:	0318                	addi	a4,sp,384
 2da:	0001                	nop
 2dc:	035a                	slli	t1,t1,0x16
 2de:	0001                	nop
 2e0:	0001                	nop
 2e2:	0000                	unimp
 2e4:	0001                	nop
 2e6:	0000                	unimp
 2e8:	035a                	slli	t1,t1,0x16
 2ea:	0001                	nop
 2ec:	03e8                	addi	a0,sp,460
 2ee:	0001                	nop
 2f0:	03e8                	addi	a0,sp,460
 2f2:	0001                	nop
 2f4:	03f0                	addi	a2,sp,460
 2f6:	0001                	nop
 2f8:	0001                	nop
 2fa:	0000                	unimp
 2fc:	0001                	nop
 2fe:	0000                	unimp
 300:	03f0                	addi	a2,sp,460
 302:	0001                	nop
 304:	0408                	addi	a0,sp,512
 306:	0001                	nop
 308:	0408                	addi	a0,sp,512
 30a:	0001                	nop
 30c:	0424                	addi	s1,sp,520
 30e:	0001                	nop
 310:	0424                	addi	s1,sp,520
 312:	0001                	nop
 314:	0440                	addi	s0,sp,516
 316:	0001                	nop
 318:	0440                	addi	s0,sp,516
 31a:	0001                	nop
 31c:	045c                	addi	a5,sp,516
 31e:	0001                	nop
 320:	045c                	addi	a5,sp,516
 322:	0001                	nop
 324:	0474                	addi	a3,sp,524
 326:	0001                	nop
 328:	0474                	addi	a3,sp,524
 32a:	0001                	nop
 32c:	0498                	addi	a4,sp,576
 32e:	0001                	nop
 330:	0498                	addi	a4,sp,576
 332:	0001                	nop
 334:	04b2                	slli	s1,s1,0xc
 336:	0001                	nop
 338:	04b2                	slli	s1,s1,0xc
 33a:	0001                	nop
 33c:	04d4                	addi	a3,sp,580
 33e:	0001                	nop
 340:	04d4                	addi	a3,sp,580
 342:	0001                	nop
 344:	0504                	addi	s1,sp,640
 346:	0001                	nop
 348:	0001                	nop
 34a:	0000                	unimp
 34c:	0001                	nop
 34e:	0000                	unimp
 350:	0001                	nop
 352:	0000                	unimp
 354:	0001                	nop
 356:	0000                	unimp
 358:	0504                	addi	s1,sp,640
 35a:	0001                	nop
 35c:	050a                	slli	a0,a0,0x2
 35e:	0001                	nop
	...
 368:	0094                	addi	a3,sp,64
 36a:	0001                	nop
 36c:	00a4                	addi	s1,sp,72
 36e:	0001                	nop
 370:	00a4                	addi	s1,sp,72
 372:	0001                	nop
 374:	00a6                	slli	ra,ra,0x9
 376:	0001                	nop
 378:	00a6                	slli	ra,ra,0x9
 37a:	0001                	nop
 37c:	00b6                	slli	ra,ra,0xd
 37e:	0001                	nop
	...
