
target/i686-unknown-linux-gnu/release/ring-buffer-smoketest:     file format elf32-i386


Disassembly of section .init:

00001000 <_init>:
    1000:	53                   	push   %ebx
    1001:	83 ec 08             	sub    $0x8,%esp
    1004:	e8 c7 00 00 00       	call   10d0 <__x86.get_pc_thunk.bx>
    1009:	81 c3 d3 2f 00 00    	add    $0x2fd3,%ebx
    100f:	8b 83 18 00 00 00    	mov    0x18(%ebx),%eax
    1015:	85 c0                	test   %eax,%eax
    1017:	74 02                	je     101b <_init+0x1b>
    1019:	ff d0                	call   *%eax
    101b:	83 c4 08             	add    $0x8,%esp
    101e:	5b                   	pop    %ebx
    101f:	c3                   	ret

Disassembly of section .plt:

00001020 <__libc_start_main@plt-0x10>:
    1020:	ff b3 04 00 00 00    	push   0x4(%ebx)
    1026:	ff a3 08 00 00 00    	jmp    *0x8(%ebx)
    102c:	00 00                	add    %al,(%eax)
	...

00001030 <__libc_start_main@plt>:
    1030:	ff a3 0c 00 00 00    	jmp    *0xc(%ebx)
    1036:	68 00 00 00 00       	push   $0x0
    103b:	e9 e0 ff ff ff       	jmp    1020 <_init+0x20>

Disassembly of section .plt.got:

00001040 <__cxa_finalize@plt>:
    1040:	ff a3 14 00 00 00    	jmp    *0x14(%ebx)
    1046:	66 90                	xchg   %ax,%ax

Disassembly of section .text:

00001050 <_ZN4core9panicking18panic_bounds_check17hcb3caba67ef1223cE>:
    1050:	55                   	push   %ebp
    1051:	89 e5                	mov    %esp,%ebp
    1053:	53                   	push   %ebx
    1054:	50                   	push   %eax
    1055:	e8 00 00 00 00       	call   105a <_ZN4core9panicking18panic_bounds_check17hcb3caba67ef1223cE+0xa>
    105a:	5b                   	pop    %ebx
    105b:	81 c3 82 2f 00 00    	add    $0x2f82,%ebx
    1061:	e8 0a 00 00 00       	call   1070 <_ZN4core9panicking9panic_fmt17h514c13d6cd639d4aE>
    1066:	66 90                	xchg   %ax,%ax
    1068:	66 90                	xchg   %ax,%ax
    106a:	66 90                	xchg   %ax,%ax
    106c:	66 90                	xchg   %ax,%ax
    106e:	66 90                	xchg   %ax,%ax

00001070 <_ZN4core9panicking9panic_fmt17h514c13d6cd639d4aE>:
    1070:	eb fe                	jmp    1070 <_ZN4core9panicking9panic_fmt17h514c13d6cd639d4aE>
    1072:	66 90                	xchg   %ax,%ax
    1074:	66 90                	xchg   %ax,%ax
    1076:	66 90                	xchg   %ax,%ax
    1078:	66 90                	xchg   %ax,%ax
    107a:	66 90                	xchg   %ax,%ax
    107c:	66 90                	xchg   %ax,%ax
    107e:	66 90                	xchg   %ax,%ax

00001080 <_ZN4core9panicking11panic_const23panic_const_rem_by_zero17h7bb78c3e6bd8c943E>:
    1080:	55                   	push   %ebp
    1081:	89 e5                	mov    %esp,%ebp
    1083:	53                   	push   %ebx
    1084:	50                   	push   %eax
    1085:	e8 00 00 00 00       	call   108a <_ZN4core9panicking11panic_const23panic_const_rem_by_zero17h7bb78c3e6bd8c943E+0xa>
    108a:	5b                   	pop    %ebx
    108b:	81 c3 52 2f 00 00    	add    $0x2f52,%ebx
    1091:	e8 da ff ff ff       	call   1070 <_ZN4core9panicking9panic_fmt17h514c13d6cd639d4aE>
    1096:	66 90                	xchg   %ax,%ax
    1098:	66 90                	xchg   %ax,%ax
    109a:	66 90                	xchg   %ax,%ax
    109c:	66 90                	xchg   %ax,%ax
    109e:	66 90                	xchg   %ax,%ax

000010a0 <_start>:
    10a0:	31 ed                	xor    %ebp,%ebp
    10a2:	5e                   	pop    %esi
    10a3:	89 e1                	mov    %esp,%ecx
    10a5:	83 e4 f0             	and    $0xfffffff0,%esp
    10a8:	50                   	push   %eax
    10a9:	54                   	push   %esp
    10aa:	52                   	push   %edx
    10ab:	e8 18 00 00 00       	call   10c8 <_start+0x28>
    10b0:	81 c3 2c 2f 00 00    	add    $0x2f2c,%ebx
    10b6:	6a 00                	push   $0x0
    10b8:	6a 00                	push   $0x0
    10ba:	51                   	push   %ecx
    10bb:	56                   	push   %esi
    10bc:	ff b3 1c 00 00 00    	push   0x1c(%ebx)
    10c2:	e8 69 ff ff ff       	call   1030 <__libc_start_main@plt>
    10c7:	f4                   	hlt
    10c8:	8b 1c 24             	mov    (%esp),%ebx
    10cb:	c3                   	ret
    10cc:	66 90                	xchg   %ax,%ax
    10ce:	66 90                	xchg   %ax,%ax

000010d0 <__x86.get_pc_thunk.bx>:
    10d0:	8b 1c 24             	mov    (%esp),%ebx
    10d3:	c3                   	ret
    10d4:	66 90                	xchg   %ax,%ax
    10d6:	66 90                	xchg   %ax,%ax
    10d8:	66 90                	xchg   %ax,%ax
    10da:	66 90                	xchg   %ax,%ax
    10dc:	66 90                	xchg   %ax,%ax
    10de:	66 90                	xchg   %ax,%ax

000010e0 <deregister_tm_clones>:
    10e0:	e8 e4 00 00 00       	call   11c9 <__x86.get_pc_thunk.dx>
    10e5:	81 c2 f7 2e 00 00    	add    $0x2ef7,%edx
    10eb:	8d 8a 28 00 00 00    	lea    0x28(%edx),%ecx
    10f1:	8d 82 28 00 00 00    	lea    0x28(%edx),%eax
    10f7:	39 c8                	cmp    %ecx,%eax
    10f9:	74 1d                	je     1118 <deregister_tm_clones+0x38>
    10fb:	8b 82 10 00 00 00    	mov    0x10(%edx),%eax
    1101:	85 c0                	test   %eax,%eax
    1103:	74 13                	je     1118 <deregister_tm_clones+0x38>
    1105:	55                   	push   %ebp
    1106:	89 e5                	mov    %esp,%ebp
    1108:	83 ec 14             	sub    $0x14,%esp
    110b:	51                   	push   %ecx
    110c:	ff d0                	call   *%eax
    110e:	83 c4 10             	add    $0x10,%esp
    1111:	c9                   	leave
    1112:	c3                   	ret
    1113:	2e 8d 74 26 00       	lea    %cs:0x0(%esi,%eiz,1),%esi
    1118:	c3                   	ret
    1119:	8d b4 26 00 00 00 00 	lea    0x0(%esi,%eiz,1),%esi

00001120 <register_tm_clones>:
    1120:	e8 a4 00 00 00       	call   11c9 <__x86.get_pc_thunk.dx>
    1125:	81 c2 b7 2e 00 00    	add    $0x2eb7,%edx
    112b:	55                   	push   %ebp
    112c:	89 e5                	mov    %esp,%ebp
    112e:	53                   	push   %ebx
    112f:	8d 8a 28 00 00 00    	lea    0x28(%edx),%ecx
    1135:	8d 82 28 00 00 00    	lea    0x28(%edx),%eax
    113b:	83 ec 04             	sub    $0x4,%esp
    113e:	29 c8                	sub    %ecx,%eax
    1140:	89 c3                	mov    %eax,%ebx
    1142:	c1 e8 1f             	shr    $0x1f,%eax
    1145:	c1 fb 02             	sar    $0x2,%ebx
    1148:	01 d8                	add    %ebx,%eax
    114a:	d1 f8                	sar    $1,%eax
    114c:	74 14                	je     1162 <register_tm_clones+0x42>
    114e:	8b 92 20 00 00 00    	mov    0x20(%edx),%edx
    1154:	85 d2                	test   %edx,%edx
    1156:	74 0a                	je     1162 <register_tm_clones+0x42>
    1158:	83 ec 08             	sub    $0x8,%esp
    115b:	50                   	push   %eax
    115c:	51                   	push   %ecx
    115d:	ff d2                	call   *%edx
    115f:	83 c4 10             	add    $0x10,%esp
    1162:	8b 5d fc             	mov    -0x4(%ebp),%ebx
    1165:	c9                   	leave
    1166:	c3                   	ret
    1167:	2e 8d b4 26 00 00 00 	lea    %cs:0x0(%esi,%eiz,1),%esi
    116e:	00 
    116f:	90                   	nop

00001170 <__do_global_dtors_aux>:
    1170:	f3 0f 1e fb          	endbr32
    1174:	55                   	push   %ebp
    1175:	89 e5                	mov    %esp,%ebp
    1177:	53                   	push   %ebx
    1178:	e8 53 ff ff ff       	call   10d0 <__x86.get_pc_thunk.bx>
    117d:	81 c3 5f 2e 00 00    	add    $0x2e5f,%ebx
    1183:	83 ec 04             	sub    $0x4,%esp
    1186:	80 bb 28 00 00 00 00 	cmpb   $0x0,0x28(%ebx)
    118d:	75 27                	jne    11b6 <__do_global_dtors_aux+0x46>
    118f:	8b 83 14 00 00 00    	mov    0x14(%ebx),%eax
    1195:	85 c0                	test   %eax,%eax
    1197:	74 11                	je     11aa <__do_global_dtors_aux+0x3a>
    1199:	83 ec 0c             	sub    $0xc,%esp
    119c:	ff b3 24 00 00 00    	push   0x24(%ebx)
    11a2:	e8 99 fe ff ff       	call   1040 <__cxa_finalize@plt>
    11a7:	83 c4 10             	add    $0x10,%esp
    11aa:	e8 31 ff ff ff       	call   10e0 <deregister_tm_clones>
    11af:	c6 83 28 00 00 00 01 	movb   $0x1,0x28(%ebx)
    11b6:	8b 5d fc             	mov    -0x4(%ebp),%ebx
    11b9:	c9                   	leave
    11ba:	c3                   	ret
    11bb:	2e 8d 74 26 00       	lea    %cs:0x0(%esi,%eiz,1),%esi

000011c0 <frame_dummy>:
    11c0:	f3 0f 1e fb          	endbr32
    11c4:	e9 57 ff ff ff       	jmp    1120 <register_tm_clones>

000011c9 <__x86.get_pc_thunk.dx>:
    11c9:	8b 14 24             	mov    (%esp),%edx
    11cc:	c3                   	ret

000011cd <_ZN146_$LT$ring_buffer_smoketest..collections..ring_buffer..RingBuffer$LT$T$GT$$u20$as$u20$ring_buffer_smoketest..collections..queue..Queue$LT$T$GT$$GT$12has_elements17h6afb98f4e53ab5b3E>:
    11cd:	8b 41 08             	mov    0x8(%ecx),%eax
    11d0:	3b 41 0c             	cmp    0xc(%ecx),%eax
    11d3:	0f 95 c0             	setne  %al
    11d6:	c3                   	ret

000011d7 <_ZN146_$LT$ring_buffer_smoketest..collections..ring_buffer..RingBuffer$LT$T$GT$$u20$as$u20$ring_buffer_smoketest..collections..queue..Queue$LT$T$GT$$GT$21remove_first_matching17ha0bbad242fd0c616E>:
    11d7:	55                   	push   %ebp
    11d8:	53                   	push   %ebx
    11d9:	57                   	push   %edi
    11da:	56                   	push   %esi
    11db:	8b 31                	mov    (%ecx),%esi
    11dd:	8b 79 04             	mov    0x4(%ecx),%edi
    11e0:	8b 59 08             	mov    0x8(%ecx),%ebx
    11e3:	8b 69 0c             	mov    0xc(%ecx),%ebp
    11e6:	31 c0                	xor    %eax,%eax
    11e8:	39 eb                	cmp    %ebp,%ebx
    11ea:	74 27                	je     1213 <_ZN146_$LT$ring_buffer_smoketest..collections..ring_buffer..RingBuffer$LT$T$GT$$u20$as$u20$ring_buffer_smoketest..collections..queue..Queue$LT$T$GT$$GT$21remove_first_matching17ha0bbad242fd0c616E+0x3c>
    11ec:	83 3c 9e 03          	cmpl   $0x3,(%esi,%ebx,4)
    11f0:	74 10                	je     1202 <_ZN146_$LT$ring_buffer_smoketest..collections..ring_buffer..RingBuffer$LT$T$GT$$u20$as$u20$ring_buffer_smoketest..collections..queue..Queue$LT$T$GT$$GT$21remove_first_matching17ha0bbad242fd0c616E+0x2b>
    11f2:	43                   	inc    %ebx
    11f3:	39 fb                	cmp    %edi,%ebx
    11f5:	0f 44 d8             	cmove  %eax,%ebx
    11f8:	eb ee                	jmp    11e8 <_ZN146_$LT$ring_buffer_smoketest..collections..ring_buffer..RingBuffer$LT$T$GT$$u20$as$u20$ring_buffer_smoketest..collections..queue..Queue$LT$T$GT$$GT$21remove_first_matching17ha0bbad242fd0c616E+0x11>
    11fa:	8b 04 96             	mov    (%esi,%edx,4),%eax
    11fd:	89 04 9e             	mov    %eax,(%esi,%ebx,4)
    1200:	89 d3                	mov    %edx,%ebx
    1202:	8d 43 01             	lea    0x1(%ebx),%eax
    1205:	31 d2                	xor    %edx,%edx
    1207:	f7 f7                	div    %edi
    1209:	39 ea                	cmp    %ebp,%edx
    120b:	75 ed                	jne    11fa <_ZN146_$LT$ring_buffer_smoketest..collections..ring_buffer..RingBuffer$LT$T$GT$$u20$as$u20$ring_buffer_smoketest..collections..queue..Queue$LT$T$GT$$GT$21remove_first_matching17ha0bbad242fd0c616E+0x23>
    120d:	31 c0                	xor    %eax,%eax
    120f:	89 59 0c             	mov    %ebx,0xc(%ecx)
    1212:	40                   	inc    %eax
    1213:	5e                   	pop    %esi
    1214:	5f                   	pop    %edi
    1215:	5b                   	pop    %ebx
    1216:	5d                   	pop    %ebp
    1217:	c3                   	ret

00001218 <_ZN146_$LT$ring_buffer_smoketest..collections..ring_buffer..RingBuffer$LT$T$GT$$u20$as$u20$ring_buffer_smoketest..collections..queue..Queue$LT$T$GT$$GT$3len17h356ecd6710dfcfb6E>:
    1218:	56                   	push   %esi
    1219:	8b 51 0c             	mov    0xc(%ecx),%edx
    121c:	8b 71 08             	mov    0x8(%ecx),%esi
    121f:	89 d0                	mov    %edx,%eax
    1221:	29 f0                	sub    %esi,%eax
    1223:	77 0d                	ja     1232 <_ZN146_$LT$ring_buffer_smoketest..collections..ring_buffer..RingBuffer$LT$T$GT$$u20$as$u20$ring_buffer_smoketest..collections..queue..Queue$LT$T$GT$$GT$3len17h356ecd6710dfcfb6E+0x1a>
    1225:	31 c0                	xor    %eax,%eax
    1227:	39 f2                	cmp    %esi,%edx
    1229:	73 07                	jae    1232 <_ZN146_$LT$ring_buffer_smoketest..collections..ring_buffer..RingBuffer$LT$T$GT$$u20$as$u20$ring_buffer_smoketest..collections..queue..Queue$LT$T$GT$$GT$3len17h356ecd6710dfcfb6E+0x1a>
    122b:	8b 41 04             	mov    0x4(%ecx),%eax
    122e:	29 f0                	sub    %esi,%eax
    1230:	01 d0                	add    %edx,%eax
    1232:	5e                   	pop    %esi
    1233:	c3                   	ret

00001234 <_ZN146_$LT$ring_buffer_smoketest..collections..ring_buffer..RingBuffer$LT$T$GT$$u20$as$u20$ring_buffer_smoketest..collections..queue..Queue$LT$T$GT$$GT$4push17he8c8bf91b6a4a14bE>:
    1234:	55                   	push   %ebp
    1235:	53                   	push   %ebx
    1236:	57                   	push   %edi
    1237:	56                   	push   %esi
    1238:	83 ec 0c             	sub    $0xc,%esp
    123b:	8b 41 04             	mov    0x4(%ecx),%eax
    123e:	8b 79 08             	mov    0x8(%ecx),%edi
    1241:	8b 69 0c             	mov    0xc(%ecx),%ebp
    1244:	e8 00 00 00 00       	call   1249 <_ZN146_$LT$ring_buffer_smoketest..collections..ring_buffer..RingBuffer$LT$T$GT$$u20$as$u20$ring_buffer_smoketest..collections..queue..Queue$LT$T$GT$$GT$4push17he8c8bf91b6a4a14bE+0x15>
    1249:	5b                   	pop    %ebx
    124a:	89 54 24 08          	mov    %edx,0x8(%esp)
    124e:	89 ce                	mov    %ecx,%esi
    1250:	81 c3 93 2d 00 00    	add    $0x2d93,%ebx
    1256:	89 44 24 04          	mov    %eax,0x4(%esp)
    125a:	e8 8d 01 00 00       	call   13ec <_ZN146_$LT$ring_buffer_smoketest..collections..ring_buffer..RingBuffer$LT$T$GT$$u20$as$u20$ring_buffer_smoketest..collections..queue..Queue$LT$T$GT$$GT$7is_full17h8a10bf5a6aad2ca4E>
    125f:	8b 1e                	mov    (%esi),%ebx
    1261:	31 c9                	xor    %ecx,%ecx
    1263:	84 c0                	test   %al,%al
    1265:	b8 00 00 00 00       	mov    $0x0,%eax
    126a:	74 13                	je     127f <_ZN146_$LT$ring_buffer_smoketest..collections..ring_buffer..RingBuffer$LT$T$GT$$u20$as$u20$ring_buffer_smoketest..collections..queue..Queue$LT$T$GT$$GT$4push17he8c8bf91b6a4a14bE+0x4b>
    126c:	8b 14 bb             	mov    (%ebx,%edi,4),%edx
    126f:	47                   	inc    %edi
    1270:	31 c0                	xor    %eax,%eax
    1272:	3b 7c 24 04          	cmp    0x4(%esp),%edi
    1276:	0f 45 c7             	cmovne %edi,%eax
    1279:	89 46 08             	mov    %eax,0x8(%esi)
    127c:	31 c0                	xor    %eax,%eax
    127e:	40                   	inc    %eax
    127f:	8b 7c 24 08          	mov    0x8(%esp),%edi
    1283:	89 3c ab             	mov    %edi,(%ebx,%ebp,4)
    1286:	45                   	inc    %ebp
    1287:	3b 6c 24 04          	cmp    0x4(%esp),%ebp
    128b:	0f 44 e9             	cmove  %ecx,%ebp
    128e:	89 6e 0c             	mov    %ebp,0xc(%esi)
    1291:	83 c4 0c             	add    $0xc,%esp
    1294:	5e                   	pop    %esi
    1295:	5f                   	pop    %edi
    1296:	5b                   	pop    %ebx
    1297:	5d                   	pop    %ebp
    1298:	c3                   	ret

00001299 <_ZN146_$LT$ring_buffer_smoketest..collections..ring_buffer..RingBuffer$LT$T$GT$$u20$as$u20$ring_buffer_smoketest..collections..queue..Queue$LT$T$GT$$GT$5empty17h57093b4d177a9ac6E>:
    1299:	83 61 08 00          	andl   $0x0,0x8(%ecx)
    129d:	83 61 0c 00          	andl   $0x0,0xc(%ecx)
    12a1:	c3                   	ret

000012a2 <_ZN146_$LT$ring_buffer_smoketest..collections..ring_buffer..RingBuffer$LT$T$GT$$u20$as$u20$ring_buffer_smoketest..collections..queue..Queue$LT$T$GT$$GT$6retain17he64bb8e634d33952E>:
    12a2:	55                   	push   %ebp
    12a3:	53                   	push   %ebx
    12a4:	57                   	push   %edi
    12a5:	56                   	push   %esi
    12a6:	83 ec 1c             	sub    $0x1c,%esp
    12a9:	8b 31                	mov    (%ecx),%esi
    12ab:	8b 51 04             	mov    0x4(%ecx),%edx
    12ae:	89 4c 24 14          	mov    %ecx,0x14(%esp)
    12b2:	e8 00 00 00 00       	call   12b7 <_ZN146_$LT$ring_buffer_smoketest..collections..ring_buffer..RingBuffer$LT$T$GT$$u20$as$u20$ring_buffer_smoketest..collections..queue..Queue$LT$T$GT$$GT$6retain17he64bb8e634d33952E+0x15>
    12b7:	58                   	pop    %eax
    12b8:	81 c0 25 2d 00 00    	add    $0x2d25,%eax
    12be:	89 44 24 04          	mov    %eax,0x4(%esp)
    12c2:	89 74 24 08          	mov    %esi,0x8(%esp)
    12c6:	8b 71 08             	mov    0x8(%ecx),%esi
    12c9:	8b 49 0c             	mov    0xc(%ecx),%ecx
    12cc:	89 4c 24 18          	mov    %ecx,0x18(%esp)
    12d0:	89 d1                	mov    %edx,%ecx
    12d2:	89 f7                	mov    %esi,%edi
    12d4:	3b 7c 24 18          	cmp    0x18(%esp),%edi
    12d8:	74 64                	je     133e <_ZN146_$LT$ring_buffer_smoketest..collections..ring_buffer..RingBuffer$LT$T$GT$$u20$as$u20$ring_buffer_smoketest..collections..queue..Queue$LT$T$GT$$GT$6retain17he64bb8e634d33952E+0x9c>
    12da:	8b 44 24 08          	mov    0x8(%esp),%eax
    12de:	8d 54 24 10          	lea    0x10(%esp),%edx
    12e2:	8b 04 b8             	mov    (%eax,%edi,4),%eax
    12e5:	89 44 24 0c          	mov    %eax,0xc(%esp)
    12e9:	8d 44 24 0c          	lea    0xc(%esp),%eax
    12ed:	c7 44 24 10 02 00 00 	movl   $0x2,0x10(%esp)
    12f4:	00 
    12f5:	8b 44 24 0c          	mov    0xc(%esp),%eax
    12f9:	8b 5c 24 10          	mov    0x10(%esp),%ebx
    12fd:	85 db                	test   %ebx,%ebx
    12ff:	74 4c                	je     134d <_ZN146_$LT$ring_buffer_smoketest..collections..ring_buffer..RingBuffer$LT$T$GT$$u20$as$u20$ring_buffer_smoketest..collections..queue..Queue$LT$T$GT$$GT$6retain17he64bb8e634d33952E+0xab>
    1301:	89 da                	mov    %ebx,%edx
    1303:	8d a8 00 00 00 80    	lea    -0x80000000(%eax),%ebp
    1309:	f7 d2                	not    %edx
    130b:	09 d5                	or     %edx,%ebp
    130d:	74 3e                	je     134d <_ZN146_$LT$ring_buffer_smoketest..collections..ring_buffer..RingBuffer$LT$T$GT$$u20$as$u20$ring_buffer_smoketest..collections..queue..Queue$LT$T$GT$$GT$6retain17he64bb8e634d33952E+0xab>
    130f:	99                   	cltd
    1310:	f7 fb                	idiv   %ebx
    1312:	85 d2                	test   %edx,%edx
    1314:	75 1b                	jne    1331 <_ZN146_$LT$ring_buffer_smoketest..collections..ring_buffer..RingBuffer$LT$T$GT$$u20$as$u20$ring_buffer_smoketest..collections..queue..Queue$LT$T$GT$$GT$6retain17he64bb8e634d33952E+0x8f>
    1316:	39 f7                	cmp    %esi,%edi
    1318:	74 0e                	je     1328 <_ZN146_$LT$ring_buffer_smoketest..collections..ring_buffer..RingBuffer$LT$T$GT$$u20$as$u20$ring_buffer_smoketest..collections..queue..Queue$LT$T$GT$$GT$6retain17he64bb8e634d33952E+0x86>
    131a:	39 ce                	cmp    %ecx,%esi
    131c:	73 38                	jae    1356 <_ZN146_$LT$ring_buffer_smoketest..collections..ring_buffer..RingBuffer$LT$T$GT$$u20$as$u20$ring_buffer_smoketest..collections..queue..Queue$LT$T$GT$$GT$6retain17he64bb8e634d33952E+0xb4>
    131e:	8b 54 24 08          	mov    0x8(%esp),%edx
    1322:	8b 04 ba             	mov    (%edx,%edi,4),%eax
    1325:	89 04 b2             	mov    %eax,(%edx,%esi,4)
    1328:	46                   	inc    %esi
    1329:	31 d2                	xor    %edx,%edx
    132b:	89 f0                	mov    %esi,%eax
    132d:	f7 f1                	div    %ecx
    132f:	89 d6                	mov    %edx,%esi
    1331:	47                   	inc    %edi
    1332:	b8 00 00 00 00       	mov    $0x0,%eax
    1337:	39 cf                	cmp    %ecx,%edi
    1339:	0f 44 f8             	cmove  %eax,%edi
    133c:	eb 96                	jmp    12d4 <_ZN146_$LT$ring_buffer_smoketest..collections..ring_buffer..RingBuffer$LT$T$GT$$u20$as$u20$ring_buffer_smoketest..collections..queue..Queue$LT$T$GT$$GT$6retain17he64bb8e634d33952E+0x32>
    133e:	8b 44 24 14          	mov    0x14(%esp),%eax
    1342:	89 70 0c             	mov    %esi,0xc(%eax)
    1345:	83 c4 1c             	add    $0x1c,%esp
    1348:	5e                   	pop    %esi
    1349:	5f                   	pop    %edi
    134a:	5b                   	pop    %ebx
    134b:	5d                   	pop    %ebp
    134c:	c3                   	ret
    134d:	8b 5c 24 04          	mov    0x4(%esp),%ebx
    1351:	e8 2a fd ff ff       	call   1080 <_ZN4core9panicking11panic_const23panic_const_rem_by_zero17h7bb78c3e6bd8c943E>
    1356:	8b 5c 24 04          	mov    0x4(%esp),%ebx
    135a:	89 ca                	mov    %ecx,%edx
    135c:	89 f1                	mov    %esi,%ecx
    135e:	e8 ed fc ff ff       	call   1050 <_ZN4core9panicking18panic_bounds_check17hcb3caba67ef1223cE>

00001363 <_ZN146_$LT$ring_buffer_smoketest..collections..ring_buffer..RingBuffer$LT$T$GT$$u20$as$u20$ring_buffer_smoketest..collections..queue..Queue$LT$T$GT$$GT$7dequeue17h68d0ad01b9e4ad29E>:
    1363:	55                   	push   %ebp
    1364:	53                   	push   %ebx
    1365:	57                   	push   %edi
    1366:	56                   	push   %esi
    1367:	83 ec 0c             	sub    $0xc,%esp
    136a:	8b 69 04             	mov    0x4(%ecx),%ebp
    136d:	8b 79 08             	mov    0x8(%ecx),%edi
    1370:	e8 00 00 00 00       	call   1375 <_ZN146_$LT$ring_buffer_smoketest..collections..ring_buffer..RingBuffer$LT$T$GT$$u20$as$u20$ring_buffer_smoketest..collections..queue..Queue$LT$T$GT$$GT$7dequeue17h68d0ad01b9e4ad29E+0x12>
    1375:	5b                   	pop    %ebx
    1376:	89 ce                	mov    %ecx,%esi
    1378:	81 c3 67 2c 00 00    	add    $0x2c67,%ebx
    137e:	e8 4a fe ff ff       	call   11cd <_ZN146_$LT$ring_buffer_smoketest..collections..ring_buffer..RingBuffer$LT$T$GT$$u20$as$u20$ring_buffer_smoketest..collections..queue..Queue$LT$T$GT$$GT$12has_elements17h6afb98f4e53ab5b3E>
    1383:	84 c0                	test   %al,%al
    1385:	74 15                	je     139c <_ZN146_$LT$ring_buffer_smoketest..collections..ring_buffer..RingBuffer$LT$T$GT$$u20$as$u20$ring_buffer_smoketest..collections..queue..Queue$LT$T$GT$$GT$7dequeue17h68d0ad01b9e4ad29E+0x39>
    1387:	8b 06                	mov    (%esi),%eax
    1389:	8b 14 b8             	mov    (%eax,%edi,4),%edx
    138c:	47                   	inc    %edi
    138d:	31 c0                	xor    %eax,%eax
    138f:	39 ef                	cmp    %ebp,%edi
    1391:	0f 45 c7             	cmovne %edi,%eax
    1394:	89 46 08             	mov    %eax,0x8(%esi)
    1397:	31 c0                	xor    %eax,%eax
    1399:	40                   	inc    %eax
    139a:	eb 02                	jmp    139e <_ZN146_$LT$ring_buffer_smoketest..collections..ring_buffer..RingBuffer$LT$T$GT$$u20$as$u20$ring_buffer_smoketest..collections..queue..Queue$LT$T$GT$$GT$7dequeue17h68d0ad01b9e4ad29E+0x3b>
    139c:	31 c0                	xor    %eax,%eax
    139e:	83 c4 0c             	add    $0xc,%esp
    13a1:	5e                   	pop    %esi
    13a2:	5f                   	pop    %edi
    13a3:	5b                   	pop    %ebx
    13a4:	5d                   	pop    %ebp
    13a5:	c3                   	ret

000013a6 <_ZN146_$LT$ring_buffer_smoketest..collections..ring_buffer..RingBuffer$LT$T$GT$$u20$as$u20$ring_buffer_smoketest..collections..queue..Queue$LT$T$GT$$GT$7enqueue17h13b0787edeecf075E>:
    13a6:	55                   	push   %ebp
    13a7:	53                   	push   %ebx
    13a8:	57                   	push   %edi
    13a9:	56                   	push   %esi
    13aa:	83 ec 0c             	sub    $0xc,%esp
    13ad:	8b 41 04             	mov    0x4(%ecx),%eax
    13b0:	8b 69 0c             	mov    0xc(%ecx),%ebp
    13b3:	e8 00 00 00 00       	call   13b8 <_ZN146_$LT$ring_buffer_smoketest..collections..ring_buffer..RingBuffer$LT$T$GT$$u20$as$u20$ring_buffer_smoketest..collections..queue..Queue$LT$T$GT$$GT$7enqueue17h13b0787edeecf075E+0x12>
    13b8:	5b                   	pop    %ebx
    13b9:	89 d7                	mov    %edx,%edi
    13bb:	89 ce                	mov    %ecx,%esi
    13bd:	81 c3 24 2c 00 00    	add    $0x2c24,%ebx
    13c3:	89 44 24 08          	mov    %eax,0x8(%esp)
    13c7:	e8 20 00 00 00       	call   13ec <_ZN146_$LT$ring_buffer_smoketest..collections..ring_buffer..RingBuffer$LT$T$GT$$u20$as$u20$ring_buffer_smoketest..collections..queue..Queue$LT$T$GT$$GT$7is_full17h8a10bf5a6aad2ca4E>
    13cc:	84 c0                	test   %al,%al
    13ce:	75 12                	jne    13e2 <_ZN146_$LT$ring_buffer_smoketest..collections..ring_buffer..RingBuffer$LT$T$GT$$u20$as$u20$ring_buffer_smoketest..collections..queue..Queue$LT$T$GT$$GT$7enqueue17h13b0787edeecf075E+0x3c>
    13d0:	8b 0e                	mov    (%esi),%ecx
    13d2:	89 3c a9             	mov    %edi,(%ecx,%ebp,4)
    13d5:	45                   	inc    %ebp
    13d6:	31 c9                	xor    %ecx,%ecx
    13d8:	3b 6c 24 08          	cmp    0x8(%esp),%ebp
    13dc:	0f 45 cd             	cmovne %ebp,%ecx
    13df:	89 4e 0c             	mov    %ecx,0xc(%esi)
    13e2:	34 01                	xor    $0x1,%al
    13e4:	83 c4 0c             	add    $0xc,%esp
    13e7:	5e                   	pop    %esi
    13e8:	5f                   	pop    %edi
    13e9:	5b                   	pop    %ebx
    13ea:	5d                   	pop    %ebp
    13eb:	c3                   	ret

000013ec <_ZN146_$LT$ring_buffer_smoketest..collections..ring_buffer..RingBuffer$LT$T$GT$$u20$as$u20$ring_buffer_smoketest..collections..queue..Queue$LT$T$GT$$GT$7is_full17h8a10bf5a6aad2ca4E>:
    13ec:	8b 41 0c             	mov    0xc(%ecx),%eax
    13ef:	31 d2                	xor    %edx,%edx
    13f1:	40                   	inc    %eax
    13f2:	3b 41 04             	cmp    0x4(%ecx),%eax
    13f5:	0f 45 d0             	cmovne %eax,%edx
    13f8:	39 51 08             	cmp    %edx,0x8(%ecx)
    13fb:	0f 94 c0             	sete   %al
    13fe:	c3                   	ret

000013ff <_ZN21ring_buffer_smoketest11collections11ring_buffer19RingBuffer$LT$T$GT$13available_len17h382dfd2f173cc0fdE>:
    13ff:	53                   	push   %ebx
    1400:	56                   	push   %esi
    1401:	50                   	push   %eax
    1402:	8b 71 04             	mov    0x4(%ecx),%esi
    1405:	e8 00 00 00 00       	call   140a <_ZN21ring_buffer_smoketest11collections11ring_buffer19RingBuffer$LT$T$GT$13available_len17h382dfd2f173cc0fdE+0xb>
    140a:	5b                   	pop    %ebx
    140b:	81 c3 d2 2b 00 00    	add    $0x2bd2,%ebx
    1411:	e8 02 fe ff ff       	call   1218 <_ZN146_$LT$ring_buffer_smoketest..collections..ring_buffer..RingBuffer$LT$T$GT$$u20$as$u20$ring_buffer_smoketest..collections..queue..Queue$LT$T$GT$$GT$3len17h356ecd6710dfcfb6E>
    1416:	40                   	inc    %eax
    1417:	31 c9                	xor    %ecx,%ecx
    1419:	29 c6                	sub    %eax,%esi
    141b:	0f 42 f1             	cmovb  %ecx,%esi
    141e:	89 f0                	mov    %esi,%eax
    1420:	83 c4 04             	add    $0x4,%esp
    1423:	5e                   	pop    %esi
    1424:	5b                   	pop    %ebx
    1425:	c3                   	ret

00001426 <_ZN21ring_buffer_smoketest11collections11ring_buffer19RingBuffer$LT$T$GT$3new17h83aed397aaeef07eE>:
    1426:	89 11                	mov    %edx,(%ecx)
    1428:	c7 41 04 05 00 00 00 	movl   $0x5,0x4(%ecx)
    142f:	83 61 08 00          	andl   $0x0,0x8(%ecx)
    1433:	83 61 0c 00          	andl   $0x0,0xc(%ecx)
    1437:	c3                   	ret

00001438 <_ZN21ring_buffer_smoketest11collections11ring_buffer19RingBuffer$LT$T$GT$9as_slices17h4820a1d88aad2cfdE>:
    1438:	53                   	push   %ebx
    1439:	57                   	push   %edi
    143a:	56                   	push   %esi
    143b:	8b 42 0c             	mov    0xc(%edx),%eax
    143e:	8b 72 08             	mov    0x8(%edx),%esi
    1441:	89 c7                	mov    %eax,%edi
    1443:	29 f7                	sub    %esi,%edi
    1445:	76 0c                	jbe    1453 <_ZN21ring_buffer_smoketest11collections11ring_buffer19RingBuffer$LT$T$GT$9as_slices17h4820a1d88aad2cfdE+0x1b>
    1447:	c1 e6 02             	shl    $0x2,%esi
    144a:	03 32                	add    (%edx),%esi
    144c:	89 31                	mov    %esi,(%ecx)
    144e:	89 79 04             	mov    %edi,0x4(%ecx)
    1451:	eb 21                	jmp    1474 <_ZN21ring_buffer_smoketest11collections11ring_buffer19RingBuffer$LT$T$GT$9as_slices17h4820a1d88aad2cfdE+0x3c>
    1453:	73 1c                	jae    1471 <_ZN21ring_buffer_smoketest11collections11ring_buffer19RingBuffer$LT$T$GT$9as_slices17h4820a1d88aad2cfdE+0x39>
    1455:	8b 7a 04             	mov    0x4(%edx),%edi
    1458:	8b 12                	mov    (%edx),%edx
    145a:	29 f7                	sub    %esi,%edi
    145c:	85 c0                	test   %eax,%eax
    145e:	8d 1c b2             	lea    (%edx,%esi,4),%ebx
    1461:	0f 44 d0             	cmove  %eax,%edx
    1464:	89 19                	mov    %ebx,(%ecx)
    1466:	89 79 04             	mov    %edi,0x4(%ecx)
    1469:	89 51 08             	mov    %edx,0x8(%ecx)
    146c:	89 41 0c             	mov    %eax,0xc(%ecx)
    146f:	eb 07                	jmp    1478 <_ZN21ring_buffer_smoketest11collections11ring_buffer19RingBuffer$LT$T$GT$9as_slices17h4820a1d88aad2cfdE+0x40>
    1471:	83 21 00             	andl   $0x0,(%ecx)
    1474:	83 61 08 00          	andl   $0x0,0x8(%ecx)
    1478:	5e                   	pop    %esi
    1479:	5f                   	pop    %edi
    147a:	5b                   	pop    %ebx
    147b:	c3                   	ret

0000147c <main>:
    147c:	53                   	push   %ebx
    147d:	56                   	push   %esi
    147e:	83 ec 34             	sub    $0x34,%esp
    1481:	8d 54 24 20          	lea    0x20(%esp),%edx
    1485:	e8 00 00 00 00       	call   148a <main+0xe>
    148a:	5b                   	pop    %ebx
    148b:	8d 74 24 10          	lea    0x10(%esp),%esi
    148f:	0f 57 c0             	xorps  %xmm0,%xmm0
    1492:	83 62 10 00          	andl   $0x0,0x10(%edx)
    1496:	81 c3 52 2b 00 00    	add    $0x2b52,%ebx
    149c:	89 f1                	mov    %esi,%ecx
    149e:	0f 29 02             	movaps %xmm0,(%edx)
    14a1:	e8 80 ff ff ff       	call   1426 <_ZN21ring_buffer_smoketest11collections11ring_buffer19RingBuffer$LT$T$GT$3new17h83aed397aaeef07eE>
    14a6:	89 34 24             	mov    %esi,(%esp)
    14a9:	e8 50 00 00 00       	call   14fe <call_available_len>
    14ae:	89 34 24             	mov    %esi,(%esp)
    14b1:	e8 6c 00 00 00       	call   1522 <call_as_slices>
    14b6:	89 34 24             	mov    %esi,(%esp)
    14b9:	e8 8a 00 00 00       	call   1548 <call_has_elements>
    14be:	89 34 24             	mov    %esi,(%esp)
    14c1:	e8 a6 00 00 00       	call   156c <call_is_full>
    14c6:	89 34 24             	mov    %esi,(%esp)
    14c9:	e8 c2 00 00 00       	call   1590 <call_len>
    14ce:	89 34 24             	mov    %esi,(%esp)
    14d1:	e8 de 00 00 00       	call   15b4 <call_enqueue>
    14d6:	89 34 24             	mov    %esi,(%esp)
    14d9:	e8 06 01 00 00       	call   15e4 <call_dequeue>
    14de:	89 34 24             	mov    %esi,(%esp)
    14e1:	e8 23 01 00 00       	call   1609 <call_push>
    14e6:	89 34 24             	mov    %esi,(%esp)
    14e9:	e8 4e 01 00 00       	call   163c <call_remove_first_matching>
    14ee:	89 f1                	mov    %esi,%ecx
    14f0:	e8 ad fd ff ff       	call   12a2 <_ZN146_$LT$ring_buffer_smoketest..collections..ring_buffer..RingBuffer$LT$T$GT$$u20$as$u20$ring_buffer_smoketest..collections..queue..Queue$LT$T$GT$$GT$6retain17he64bb8e634d33952E>
    14f5:	89 f1                	mov    %esi,%ecx
    14f7:	e8 9d fd ff ff       	call   1299 <_ZN146_$LT$ring_buffer_smoketest..collections..ring_buffer..RingBuffer$LT$T$GT$$u20$as$u20$ring_buffer_smoketest..collections..queue..Queue$LT$T$GT$$GT$5empty17h57093b4d177a9ac6E>
    14fc:	eb fe                	jmp    14fc <main+0x80>

000014fe <call_available_len>:
    14fe:	53                   	push   %ebx
    14ff:	83 ec 08             	sub    $0x8,%esp
    1502:	8b 4c 24 10          	mov    0x10(%esp),%ecx
    1506:	e8 00 00 00 00       	call   150b <call_available_len+0xd>
    150b:	5b                   	pop    %ebx
    150c:	81 c3 d1 2a 00 00    	add    $0x2ad1,%ebx
    1512:	e8 e8 fe ff ff       	call   13ff <_ZN21ring_buffer_smoketest11collections11ring_buffer19RingBuffer$LT$T$GT$13available_len17h382dfd2f173cc0fdE>
    1517:	8d 4c 24 04          	lea    0x4(%esp),%ecx
    151b:	89 01                	mov    %eax,(%ecx)
    151d:	83 c4 08             	add    $0x8,%esp
    1520:	5b                   	pop    %ebx
    1521:	c3                   	ret

00001522 <call_as_slices>:
    1522:	53                   	push   %ebx
    1523:	56                   	push   %esi
    1524:	83 ec 14             	sub    $0x14,%esp
    1527:	8b 54 24 20          	mov    0x20(%esp),%edx
    152b:	e8 00 00 00 00       	call   1530 <call_as_slices+0xe>
    1530:	5b                   	pop    %ebx
    1531:	8d 74 24 04          	lea    0x4(%esp),%esi
    1535:	81 c3 ac 2a 00 00    	add    $0x2aac,%ebx
    153b:	89 f1                	mov    %esi,%ecx
    153d:	e8 f6 fe ff ff       	call   1438 <_ZN21ring_buffer_smoketest11collections11ring_buffer19RingBuffer$LT$T$GT$9as_slices17h4820a1d88aad2cfdE>
    1542:	83 c4 14             	add    $0x14,%esp
    1545:	5e                   	pop    %esi
    1546:	5b                   	pop    %ebx
    1547:	c3                   	ret

00001548 <call_has_elements>:
    1548:	53                   	push   %ebx
    1549:	83 ec 08             	sub    $0x8,%esp
    154c:	8b 4c 24 10          	mov    0x10(%esp),%ecx
    1550:	e8 00 00 00 00       	call   1555 <call_has_elements+0xd>
    1555:	5b                   	pop    %ebx
    1556:	81 c3 87 2a 00 00    	add    $0x2a87,%ebx
    155c:	e8 6c fc ff ff       	call   11cd <_ZN146_$LT$ring_buffer_smoketest..collections..ring_buffer..RingBuffer$LT$T$GT$$u20$as$u20$ring_buffer_smoketest..collections..queue..Queue$LT$T$GT$$GT$12has_elements17h6afb98f4e53ab5b3E>
    1561:	8d 4c 24 07          	lea    0x7(%esp),%ecx
    1565:	88 01                	mov    %al,(%ecx)
    1567:	83 c4 08             	add    $0x8,%esp
    156a:	5b                   	pop    %ebx
    156b:	c3                   	ret

0000156c <call_is_full>:
    156c:	53                   	push   %ebx
    156d:	83 ec 08             	sub    $0x8,%esp
    1570:	8b 4c 24 10          	mov    0x10(%esp),%ecx
    1574:	e8 00 00 00 00       	call   1579 <call_is_full+0xd>
    1579:	5b                   	pop    %ebx
    157a:	81 c3 63 2a 00 00    	add    $0x2a63,%ebx
    1580:	e8 67 fe ff ff       	call   13ec <_ZN146_$LT$ring_buffer_smoketest..collections..ring_buffer..RingBuffer$LT$T$GT$$u20$as$u20$ring_buffer_smoketest..collections..queue..Queue$LT$T$GT$$GT$7is_full17h8a10bf5a6aad2ca4E>
    1585:	8d 4c 24 07          	lea    0x7(%esp),%ecx
    1589:	88 01                	mov    %al,(%ecx)
    158b:	83 c4 08             	add    $0x8,%esp
    158e:	5b                   	pop    %ebx
    158f:	c3                   	ret

00001590 <call_len>:
    1590:	53                   	push   %ebx
    1591:	83 ec 08             	sub    $0x8,%esp
    1594:	8b 4c 24 10          	mov    0x10(%esp),%ecx
    1598:	e8 00 00 00 00       	call   159d <call_len+0xd>
    159d:	5b                   	pop    %ebx
    159e:	81 c3 3f 2a 00 00    	add    $0x2a3f,%ebx
    15a4:	e8 6f fc ff ff       	call   1218 <_ZN146_$LT$ring_buffer_smoketest..collections..ring_buffer..RingBuffer$LT$T$GT$$u20$as$u20$ring_buffer_smoketest..collections..queue..Queue$LT$T$GT$$GT$3len17h356ecd6710dfcfb6E>
    15a9:	8d 4c 24 04          	lea    0x4(%esp),%ecx
    15ad:	89 01                	mov    %eax,(%ecx)
    15af:	83 c4 08             	add    $0x8,%esp
    15b2:	5b                   	pop    %ebx
    15b3:	c3                   	ret

000015b4 <call_enqueue>:
    15b4:	53                   	push   %ebx
    15b5:	83 ec 08             	sub    $0x8,%esp
    15b8:	8d 44 24 04          	lea    0x4(%esp),%eax
    15bc:	8b 4c 24 10          	mov    0x10(%esp),%ecx
    15c0:	e8 00 00 00 00       	call   15c5 <call_enqueue+0x11>
    15c5:	5b                   	pop    %ebx
    15c6:	c7 00 01 00 00 00    	movl   $0x1,(%eax)
    15cc:	81 c3 17 2a 00 00    	add    $0x2a17,%ebx
    15d2:	8b 10                	mov    (%eax),%edx
    15d4:	e8 cd fd ff ff       	call   13a6 <_ZN146_$LT$ring_buffer_smoketest..collections..ring_buffer..RingBuffer$LT$T$GT$$u20$as$u20$ring_buffer_smoketest..collections..queue..Queue$LT$T$GT$$GT$7enqueue17h13b0787edeecf075E>
    15d9:	8d 4c 24 03          	lea    0x3(%esp),%ecx
    15dd:	88 01                	mov    %al,(%ecx)
    15df:	83 c4 08             	add    $0x8,%esp
    15e2:	5b                   	pop    %ebx
    15e3:	c3                   	ret

000015e4 <call_dequeue>:
    15e4:	53                   	push   %ebx
    15e5:	83 ec 08             	sub    $0x8,%esp
    15e8:	8b 4c 24 10          	mov    0x10(%esp),%ecx
    15ec:	e8 00 00 00 00       	call   15f1 <call_dequeue+0xd>
    15f1:	5b                   	pop    %ebx
    15f2:	81 c3 eb 29 00 00    	add    $0x29eb,%ebx
    15f8:	e8 66 fd ff ff       	call   1363 <_ZN146_$LT$ring_buffer_smoketest..collections..ring_buffer..RingBuffer$LT$T$GT$$u20$as$u20$ring_buffer_smoketest..collections..queue..Queue$LT$T$GT$$GT$7dequeue17h68d0ad01b9e4ad29E>
    15fd:	89 e1                	mov    %esp,%ecx
    15ff:	89 01                	mov    %eax,(%ecx)
    1601:	89 51 04             	mov    %edx,0x4(%ecx)
    1604:	83 c4 08             	add    $0x8,%esp
    1607:	5b                   	pop    %ebx
    1608:	c3                   	ret

00001609 <call_push>:
    1609:	53                   	push   %ebx
    160a:	83 ec 18             	sub    $0x18,%esp
    160d:	8d 44 24 0c          	lea    0xc(%esp),%eax
    1611:	8b 4c 24 20          	mov    0x20(%esp),%ecx
    1615:	e8 00 00 00 00       	call   161a <call_push+0x11>
    161a:	5b                   	pop    %ebx
    161b:	c7 00 02 00 00 00    	movl   $0x2,(%eax)
    1621:	81 c3 c2 29 00 00    	add    $0x29c2,%ebx
    1627:	8b 10                	mov    (%eax),%edx
    1629:	e8 06 fc ff ff       	call   1234 <_ZN146_$LT$ring_buffer_smoketest..collections..ring_buffer..RingBuffer$LT$T$GT$$u20$as$u20$ring_buffer_smoketest..collections..queue..Queue$LT$T$GT$$GT$4push17he8c8bf91b6a4a14bE>
    162e:	8d 4c 24 10          	lea    0x10(%esp),%ecx
    1632:	89 01                	mov    %eax,(%ecx)
    1634:	89 51 04             	mov    %edx,0x4(%ecx)
    1637:	83 c4 18             	add    $0x18,%esp
    163a:	5b                   	pop    %ebx
    163b:	c3                   	ret

0000163c <call_remove_first_matching>:
    163c:	53                   	push   %ebx
    163d:	56                   	push   %esi
    163e:	83 ec 14             	sub    $0x14,%esp
    1641:	8b 74 24 20          	mov    0x20(%esp),%esi
    1645:	e8 00 00 00 00       	call   164a <call_remove_first_matching+0xe>
    164a:	5b                   	pop    %ebx
    164b:	81 c3 92 29 00 00    	add    $0x2992,%ebx
    1651:	6a 03                	push   $0x3
    1653:	5a                   	pop    %edx
    1654:	89 f1                	mov    %esi,%ecx
    1656:	e8 4b fd ff ff       	call   13a6 <_ZN146_$LT$ring_buffer_smoketest..collections..ring_buffer..RingBuffer$LT$T$GT$$u20$as$u20$ring_buffer_smoketest..collections..queue..Queue$LT$T$GT$$GT$7enqueue17h13b0787edeecf075E>
    165b:	89 f1                	mov    %esi,%ecx
    165d:	e8 75 fb ff ff       	call   11d7 <_ZN146_$LT$ring_buffer_smoketest..collections..ring_buffer..RingBuffer$LT$T$GT$$u20$as$u20$ring_buffer_smoketest..collections..queue..Queue$LT$T$GT$$GT$21remove_first_matching17ha0bbad242fd0c616E>
    1662:	8d 4c 24 0c          	lea    0xc(%esp),%ecx
    1666:	89 01                	mov    %eax,(%ecx)
    1668:	c7 41 04 03 00 00 00 	movl   $0x3,0x4(%ecx)
    166f:	83 c4 14             	add    $0x14,%esp
    1672:	5e                   	pop    %esi
    1673:	5b                   	pop    %ebx
    1674:	c3                   	ret

Disassembly of section .fini:

00001678 <_fini>:
    1678:	53                   	push   %ebx
    1679:	83 ec 08             	sub    $0x8,%esp
    167c:	e8 4f fa ff ff       	call   10d0 <__x86.get_pc_thunk.bx>
    1681:	81 c3 5b 29 00 00    	add    $0x295b,%ebx
    1687:	83 c4 08             	add    $0x8,%esp
    168a:	5b                   	pop    %ebx
    168b:	c3                   	ret
